
;CodeVisionAVR C Compiler V3.12 Advanced
;(C) Copyright 1998-2014 Pavel Haiduc, HP InfoTech s.r.l.
;http://www.hpinfotech.com

;Build configuration    : Debug
;Chip type              : ATmega32
;Program type           : Application
;Clock frequency        : 8.000000 MHz
;Memory model           : Small
;Optimize for           : Size
;(s)printf features     : int, width
;(s)scanf features      : int, width
;External RAM size      : 0
;Data Stack size        : 512 byte(s)
;Heap size              : 0 byte(s)
;Promote 'char' to 'int': Yes
;'char' is unsigned     : Yes
;8 bit enums            : Yes
;Global 'const' stored in FLASH: Yes
;Enhanced function parameter passing: Yes
;Enhanced core instructions: On
;Automatic register allocation for global variables: On
;Smart register allocation: On

	#define _MODEL_SMALL_

	#pragma AVRPART ADMIN PART_NAME ATmega32
	#pragma AVRPART MEMORY PROG_FLASH 32768
	#pragma AVRPART MEMORY EEPROM 1024
	#pragma AVRPART MEMORY INT_SRAM SIZE 2048
	#pragma AVRPART MEMORY INT_SRAM START_ADDR 0x60

	#define CALL_SUPPORTED 1

	.LISTMAC
	.EQU UDRE=0x5
	.EQU RXC=0x7
	.EQU USR=0xB
	.EQU UDR=0xC
	.EQU SPSR=0xE
	.EQU SPDR=0xF
	.EQU EERE=0x0
	.EQU EEWE=0x1
	.EQU EEMWE=0x2
	.EQU EECR=0x1C
	.EQU EEDR=0x1D
	.EQU EEARL=0x1E
	.EQU EEARH=0x1F
	.EQU WDTCR=0x21
	.EQU MCUCR=0x35
	.EQU GICR=0x3B
	.EQU SPL=0x3D
	.EQU SPH=0x3E
	.EQU SREG=0x3F

	.DEF R0X0=R0
	.DEF R0X1=R1
	.DEF R0X2=R2
	.DEF R0X3=R3
	.DEF R0X4=R4
	.DEF R0X5=R5
	.DEF R0X6=R6
	.DEF R0X7=R7
	.DEF R0X8=R8
	.DEF R0X9=R9
	.DEF R0XA=R10
	.DEF R0XB=R11
	.DEF R0XC=R12
	.DEF R0XD=R13
	.DEF R0XE=R14
	.DEF R0XF=R15
	.DEF R0X10=R16
	.DEF R0X11=R17
	.DEF R0X12=R18
	.DEF R0X13=R19
	.DEF R0X14=R20
	.DEF R0X15=R21
	.DEF R0X16=R22
	.DEF R0X17=R23
	.DEF R0X18=R24
	.DEF R0X19=R25
	.DEF R0X1A=R26
	.DEF R0X1B=R27
	.DEF R0X1C=R28
	.DEF R0X1D=R29
	.DEF R0X1E=R30
	.DEF R0X1F=R31

	.EQU __SRAM_START=0x0060
	.EQU __SRAM_END=0x085F
	.EQU __DSTACK_SIZE=0x0200
	.EQU __HEAP_SIZE=0x0000
	.EQU __CLEAR_SRAM_SIZE=__SRAM_END-__SRAM_START+1

	.MACRO __CPD1N
	CPI  R30,LOW(@0)
	LDI  R26,HIGH(@0)
	CPC  R31,R26
	LDI  R26,BYTE3(@0)
	CPC  R22,R26
	LDI  R26,BYTE4(@0)
	CPC  R23,R26
	.ENDM

	.MACRO __CPD2N
	CPI  R26,LOW(@0)
	LDI  R30,HIGH(@0)
	CPC  R27,R30
	LDI  R30,BYTE3(@0)
	CPC  R24,R30
	LDI  R30,BYTE4(@0)
	CPC  R25,R30
	.ENDM

	.MACRO __CPWRR
	CP   R@0,R@2
	CPC  R@1,R@3
	.ENDM

	.MACRO __CPWRN
	CPI  R@0,LOW(@2)
	LDI  R30,HIGH(@2)
	CPC  R@1,R30
	.ENDM

	.MACRO __ADDB1MN
	SUBI R30,LOW(-@0-(@1))
	.ENDM

	.MACRO __ADDB2MN
	SUBI R26,LOW(-@0-(@1))
	.ENDM

	.MACRO __ADDW1MN
	SUBI R30,LOW(-@0-(@1))
	SBCI R31,HIGH(-@0-(@1))
	.ENDM

	.MACRO __ADDW2MN
	SUBI R26,LOW(-@0-(@1))
	SBCI R27,HIGH(-@0-(@1))
	.ENDM

	.MACRO __ADDW1FN
	SUBI R30,LOW(-2*@0-(@1))
	SBCI R31,HIGH(-2*@0-(@1))
	.ENDM

	.MACRO __ADDD1FN
	SUBI R30,LOW(-2*@0-(@1))
	SBCI R31,HIGH(-2*@0-(@1))
	SBCI R22,BYTE3(-2*@0-(@1))
	.ENDM

	.MACRO __ADDD1N
	SUBI R30,LOW(-@0)
	SBCI R31,HIGH(-@0)
	SBCI R22,BYTE3(-@0)
	SBCI R23,BYTE4(-@0)
	.ENDM

	.MACRO __ADDD2N
	SUBI R26,LOW(-@0)
	SBCI R27,HIGH(-@0)
	SBCI R24,BYTE3(-@0)
	SBCI R25,BYTE4(-@0)
	.ENDM

	.MACRO __SUBD1N
	SUBI R30,LOW(@0)
	SBCI R31,HIGH(@0)
	SBCI R22,BYTE3(@0)
	SBCI R23,BYTE4(@0)
	.ENDM

	.MACRO __SUBD2N
	SUBI R26,LOW(@0)
	SBCI R27,HIGH(@0)
	SBCI R24,BYTE3(@0)
	SBCI R25,BYTE4(@0)
	.ENDM

	.MACRO __ANDBMNN
	LDS  R30,@0+(@1)
	ANDI R30,LOW(@2)
	STS  @0+(@1),R30
	.ENDM

	.MACRO __ANDWMNN
	LDS  R30,@0+(@1)
	ANDI R30,LOW(@2)
	STS  @0+(@1),R30
	LDS  R30,@0+(@1)+1
	ANDI R30,HIGH(@2)
	STS  @0+(@1)+1,R30
	.ENDM

	.MACRO __ANDD1N
	ANDI R30,LOW(@0)
	ANDI R31,HIGH(@0)
	ANDI R22,BYTE3(@0)
	ANDI R23,BYTE4(@0)
	.ENDM

	.MACRO __ANDD2N
	ANDI R26,LOW(@0)
	ANDI R27,HIGH(@0)
	ANDI R24,BYTE3(@0)
	ANDI R25,BYTE4(@0)
	.ENDM

	.MACRO __ORBMNN
	LDS  R30,@0+(@1)
	ORI  R30,LOW(@2)
	STS  @0+(@1),R30
	.ENDM

	.MACRO __ORWMNN
	LDS  R30,@0+(@1)
	ORI  R30,LOW(@2)
	STS  @0+(@1),R30
	LDS  R30,@0+(@1)+1
	ORI  R30,HIGH(@2)
	STS  @0+(@1)+1,R30
	.ENDM

	.MACRO __ORD1N
	ORI  R30,LOW(@0)
	ORI  R31,HIGH(@0)
	ORI  R22,BYTE3(@0)
	ORI  R23,BYTE4(@0)
	.ENDM

	.MACRO __ORD2N
	ORI  R26,LOW(@0)
	ORI  R27,HIGH(@0)
	ORI  R24,BYTE3(@0)
	ORI  R25,BYTE4(@0)
	.ENDM

	.MACRO __DELAY_USB
	LDI  R24,LOW(@0)
__DELAY_USB_LOOP:
	DEC  R24
	BRNE __DELAY_USB_LOOP
	.ENDM

	.MACRO __DELAY_USW
	LDI  R24,LOW(@0)
	LDI  R25,HIGH(@0)
__DELAY_USW_LOOP:
	SBIW R24,1
	BRNE __DELAY_USW_LOOP
	.ENDM

	.MACRO __GETD1S
	LDD  R30,Y+@0
	LDD  R31,Y+@0+1
	LDD  R22,Y+@0+2
	LDD  R23,Y+@0+3
	.ENDM

	.MACRO __GETD2S
	LDD  R26,Y+@0
	LDD  R27,Y+@0+1
	LDD  R24,Y+@0+2
	LDD  R25,Y+@0+3
	.ENDM

	.MACRO __PUTD1S
	STD  Y+@0,R30
	STD  Y+@0+1,R31
	STD  Y+@0+2,R22
	STD  Y+@0+3,R23
	.ENDM

	.MACRO __PUTD2S
	STD  Y+@0,R26
	STD  Y+@0+1,R27
	STD  Y+@0+2,R24
	STD  Y+@0+3,R25
	.ENDM

	.MACRO __PUTDZ2
	STD  Z+@0,R26
	STD  Z+@0+1,R27
	STD  Z+@0+2,R24
	STD  Z+@0+3,R25
	.ENDM

	.MACRO __CLRD1S
	STD  Y+@0,R30
	STD  Y+@0+1,R30
	STD  Y+@0+2,R30
	STD  Y+@0+3,R30
	.ENDM

	.MACRO __POINTB1MN
	LDI  R30,LOW(@0+(@1))
	.ENDM

	.MACRO __POINTW1MN
	LDI  R30,LOW(@0+(@1))
	LDI  R31,HIGH(@0+(@1))
	.ENDM

	.MACRO __POINTD1M
	LDI  R30,LOW(@0)
	LDI  R31,HIGH(@0)
	LDI  R22,BYTE3(@0)
	LDI  R23,BYTE4(@0)
	.ENDM

	.MACRO __POINTW1FN
	LDI  R30,LOW(2*@0+(@1))
	LDI  R31,HIGH(2*@0+(@1))
	.ENDM

	.MACRO __POINTD1FN
	LDI  R30,LOW(2*@0+(@1))
	LDI  R31,HIGH(2*@0+(@1))
	LDI  R22,BYTE3(2*@0+(@1))
	LDI  R23,BYTE4(2*@0+(@1))
	.ENDM

	.MACRO __POINTB2MN
	LDI  R26,LOW(@0+(@1))
	.ENDM

	.MACRO __POINTW2MN
	LDI  R26,LOW(@0+(@1))
	LDI  R27,HIGH(@0+(@1))
	.ENDM

	.MACRO __POINTW2FN
	LDI  R26,LOW(2*@0+(@1))
	LDI  R27,HIGH(2*@0+(@1))
	.ENDM

	.MACRO __POINTD2FN
	LDI  R26,LOW(2*@0+(@1))
	LDI  R27,HIGH(2*@0+(@1))
	LDI  R24,BYTE3(2*@0+(@1))
	LDI  R25,BYTE4(2*@0+(@1))
	.ENDM

	.MACRO __POINTBRM
	LDI  R@0,LOW(@1)
	.ENDM

	.MACRO __POINTWRM
	LDI  R@0,LOW(@2)
	LDI  R@1,HIGH(@2)
	.ENDM

	.MACRO __POINTBRMN
	LDI  R@0,LOW(@1+(@2))
	.ENDM

	.MACRO __POINTWRMN
	LDI  R@0,LOW(@2+(@3))
	LDI  R@1,HIGH(@2+(@3))
	.ENDM

	.MACRO __POINTWRFN
	LDI  R@0,LOW(@2*2+(@3))
	LDI  R@1,HIGH(@2*2+(@3))
	.ENDM

	.MACRO __GETD1N
	LDI  R30,LOW(@0)
	LDI  R31,HIGH(@0)
	LDI  R22,BYTE3(@0)
	LDI  R23,BYTE4(@0)
	.ENDM

	.MACRO __GETD2N
	LDI  R26,LOW(@0)
	LDI  R27,HIGH(@0)
	LDI  R24,BYTE3(@0)
	LDI  R25,BYTE4(@0)
	.ENDM

	.MACRO __GETB1MN
	LDS  R30,@0+(@1)
	.ENDM

	.MACRO __GETB1HMN
	LDS  R31,@0+(@1)
	.ENDM

	.MACRO __GETW1MN
	LDS  R30,@0+(@1)
	LDS  R31,@0+(@1)+1
	.ENDM

	.MACRO __GETD1MN
	LDS  R30,@0+(@1)
	LDS  R31,@0+(@1)+1
	LDS  R22,@0+(@1)+2
	LDS  R23,@0+(@1)+3
	.ENDM

	.MACRO __GETBRMN
	LDS  R@0,@1+(@2)
	.ENDM

	.MACRO __GETWRMN
	LDS  R@0,@2+(@3)
	LDS  R@1,@2+(@3)+1
	.ENDM

	.MACRO __GETWRZ
	LDD  R@0,Z+@2
	LDD  R@1,Z+@2+1
	.ENDM

	.MACRO __GETD2Z
	LDD  R26,Z+@0
	LDD  R27,Z+@0+1
	LDD  R24,Z+@0+2
	LDD  R25,Z+@0+3
	.ENDM

	.MACRO __GETB2MN
	LDS  R26,@0+(@1)
	.ENDM

	.MACRO __GETW2MN
	LDS  R26,@0+(@1)
	LDS  R27,@0+(@1)+1
	.ENDM

	.MACRO __GETD2MN
	LDS  R26,@0+(@1)
	LDS  R27,@0+(@1)+1
	LDS  R24,@0+(@1)+2
	LDS  R25,@0+(@1)+3
	.ENDM

	.MACRO __PUTB1MN
	STS  @0+(@1),R30
	.ENDM

	.MACRO __PUTW1MN
	STS  @0+(@1),R30
	STS  @0+(@1)+1,R31
	.ENDM

	.MACRO __PUTD1MN
	STS  @0+(@1),R30
	STS  @0+(@1)+1,R31
	STS  @0+(@1)+2,R22
	STS  @0+(@1)+3,R23
	.ENDM

	.MACRO __PUTB1EN
	LDI  R26,LOW(@0+(@1))
	LDI  R27,HIGH(@0+(@1))
	CALL __EEPROMWRB
	.ENDM

	.MACRO __PUTW1EN
	LDI  R26,LOW(@0+(@1))
	LDI  R27,HIGH(@0+(@1))
	CALL __EEPROMWRW
	.ENDM

	.MACRO __PUTD1EN
	LDI  R26,LOW(@0+(@1))
	LDI  R27,HIGH(@0+(@1))
	CALL __EEPROMWRD
	.ENDM

	.MACRO __PUTBR0MN
	STS  @0+(@1),R0
	.ENDM

	.MACRO __PUTBMRN
	STS  @0+(@1),R@2
	.ENDM

	.MACRO __PUTWMRN
	STS  @0+(@1),R@2
	STS  @0+(@1)+1,R@3
	.ENDM

	.MACRO __PUTBZR
	STD  Z+@1,R@0
	.ENDM

	.MACRO __PUTWZR
	STD  Z+@2,R@0
	STD  Z+@2+1,R@1
	.ENDM

	.MACRO __GETW1R
	MOV  R30,R@0
	MOV  R31,R@1
	.ENDM

	.MACRO __GETW2R
	MOV  R26,R@0
	MOV  R27,R@1
	.ENDM

	.MACRO __GETWRN
	LDI  R@0,LOW(@2)
	LDI  R@1,HIGH(@2)
	.ENDM

	.MACRO __PUTW1R
	MOV  R@0,R30
	MOV  R@1,R31
	.ENDM

	.MACRO __PUTW2R
	MOV  R@0,R26
	MOV  R@1,R27
	.ENDM

	.MACRO __ADDWRN
	SUBI R@0,LOW(-@2)
	SBCI R@1,HIGH(-@2)
	.ENDM

	.MACRO __ADDWRR
	ADD  R@0,R@2
	ADC  R@1,R@3
	.ENDM

	.MACRO __SUBWRN
	SUBI R@0,LOW(@2)
	SBCI R@1,HIGH(@2)
	.ENDM

	.MACRO __SUBWRR
	SUB  R@0,R@2
	SBC  R@1,R@3
	.ENDM

	.MACRO __ANDWRN
	ANDI R@0,LOW(@2)
	ANDI R@1,HIGH(@2)
	.ENDM

	.MACRO __ANDWRR
	AND  R@0,R@2
	AND  R@1,R@3
	.ENDM

	.MACRO __ORWRN
	ORI  R@0,LOW(@2)
	ORI  R@1,HIGH(@2)
	.ENDM

	.MACRO __ORWRR
	OR   R@0,R@2
	OR   R@1,R@3
	.ENDM

	.MACRO __EORWRR
	EOR  R@0,R@2
	EOR  R@1,R@3
	.ENDM

	.MACRO __GETWRS
	LDD  R@0,Y+@2
	LDD  R@1,Y+@2+1
	.ENDM

	.MACRO __PUTBSR
	STD  Y+@1,R@0
	.ENDM

	.MACRO __PUTWSR
	STD  Y+@2,R@0
	STD  Y+@2+1,R@1
	.ENDM

	.MACRO __MOVEWRR
	MOV  R@0,R@2
	MOV  R@1,R@3
	.ENDM

	.MACRO __INWR
	IN   R@0,@2
	IN   R@1,@2+1
	.ENDM

	.MACRO __OUTWR
	OUT  @2+1,R@1
	OUT  @2,R@0
	.ENDM

	.MACRO __CALL1MN
	LDS  R30,@0+(@1)
	LDS  R31,@0+(@1)+1
	ICALL
	.ENDM

	.MACRO __CALL1FN
	LDI  R30,LOW(2*@0+(@1))
	LDI  R31,HIGH(2*@0+(@1))
	CALL __GETW1PF
	ICALL
	.ENDM

	.MACRO __CALL2EN
	PUSH R26
	PUSH R27
	LDI  R26,LOW(@0+(@1))
	LDI  R27,HIGH(@0+(@1))
	CALL __EEPROMRDW
	POP  R27
	POP  R26
	ICALL
	.ENDM

	.MACRO __CALL2EX
	SUBI R26,LOW(-@0)
	SBCI R27,HIGH(-@0)
	CALL __EEPROMRDD
	ICALL
	.ENDM

	.MACRO __GETW1STACK
	IN   R30,SPL
	IN   R31,SPH
	ADIW R30,@0+1
	LD   R0,Z+
	LD   R31,Z
	MOV  R30,R0
	.ENDM

	.MACRO __GETD1STACK
	IN   R30,SPL
	IN   R31,SPH
	ADIW R30,@0+1
	LD   R0,Z+
	LD   R1,Z+
	LD   R22,Z
	MOVW R30,R0
	.ENDM

	.MACRO __NBST
	BST  R@0,@1
	IN   R30,SREG
	LDI  R31,0x40
	EOR  R30,R31
	OUT  SREG,R30
	.ENDM


	.MACRO __PUTB1SN
	LDD  R26,Y+@0
	LDD  R27,Y+@0+1
	SUBI R26,LOW(-@1)
	SBCI R27,HIGH(-@1)
	ST   X,R30
	.ENDM

	.MACRO __PUTW1SN
	LDD  R26,Y+@0
	LDD  R27,Y+@0+1
	SUBI R26,LOW(-@1)
	SBCI R27,HIGH(-@1)
	ST   X+,R30
	ST   X,R31
	.ENDM

	.MACRO __PUTD1SN
	LDD  R26,Y+@0
	LDD  R27,Y+@0+1
	SUBI R26,LOW(-@1)
	SBCI R27,HIGH(-@1)
	CALL __PUTDP1
	.ENDM

	.MACRO __PUTB1SNS
	LDD  R26,Y+@0
	LDD  R27,Y+@0+1
	ADIW R26,@1
	ST   X,R30
	.ENDM

	.MACRO __PUTW1SNS
	LDD  R26,Y+@0
	LDD  R27,Y+@0+1
	ADIW R26,@1
	ST   X+,R30
	ST   X,R31
	.ENDM

	.MACRO __PUTD1SNS
	LDD  R26,Y+@0
	LDD  R27,Y+@0+1
	ADIW R26,@1
	CALL __PUTDP1
	.ENDM

	.MACRO __PUTB1PMN
	LDS  R26,@0
	LDS  R27,@0+1
	SUBI R26,LOW(-@1)
	SBCI R27,HIGH(-@1)
	ST   X,R30
	.ENDM

	.MACRO __PUTW1PMN
	LDS  R26,@0
	LDS  R27,@0+1
	SUBI R26,LOW(-@1)
	SBCI R27,HIGH(-@1)
	ST   X+,R30
	ST   X,R31
	.ENDM

	.MACRO __PUTD1PMN
	LDS  R26,@0
	LDS  R27,@0+1
	SUBI R26,LOW(-@1)
	SBCI R27,HIGH(-@1)
	CALL __PUTDP1
	.ENDM

	.MACRO __PUTB1PMNS
	LDS  R26,@0
	LDS  R27,@0+1
	ADIW R26,@1
	ST   X,R30
	.ENDM

	.MACRO __PUTW1PMNS
	LDS  R26,@0
	LDS  R27,@0+1
	ADIW R26,@1
	ST   X+,R30
	ST   X,R31
	.ENDM

	.MACRO __PUTD1PMNS
	LDS  R26,@0
	LDS  R27,@0+1
	ADIW R26,@1
	CALL __PUTDP1
	.ENDM

	.MACRO __PUTB1RN
	MOVW R26,R@0
	SUBI R26,LOW(-@1)
	SBCI R27,HIGH(-@1)
	ST   X,R30
	.ENDM

	.MACRO __PUTW1RN
	MOVW R26,R@0
	SUBI R26,LOW(-@1)
	SBCI R27,HIGH(-@1)
	ST   X+,R30
	ST   X,R31
	.ENDM

	.MACRO __PUTD1RN
	MOVW R26,R@0
	SUBI R26,LOW(-@1)
	SBCI R27,HIGH(-@1)
	CALL __PUTDP1
	.ENDM

	.MACRO __PUTB1RNS
	MOVW R26,R@0
	ADIW R26,@1
	ST   X,R30
	.ENDM

	.MACRO __PUTW1RNS
	MOVW R26,R@0
	ADIW R26,@1
	ST   X+,R30
	ST   X,R31
	.ENDM

	.MACRO __PUTD1RNS
	MOVW R26,R@0
	ADIW R26,@1
	CALL __PUTDP1
	.ENDM

	.MACRO __PUTB1RON
	MOV  R26,R@0
	MOV  R27,R@1
	SUBI R26,LOW(-@2)
	SBCI R27,HIGH(-@2)
	ST   X,R30
	.ENDM

	.MACRO __PUTW1RON
	MOV  R26,R@0
	MOV  R27,R@1
	SUBI R26,LOW(-@2)
	SBCI R27,HIGH(-@2)
	ST   X+,R30
	ST   X,R31
	.ENDM

	.MACRO __PUTD1RON
	MOV  R26,R@0
	MOV  R27,R@1
	SUBI R26,LOW(-@2)
	SBCI R27,HIGH(-@2)
	CALL __PUTDP1
	.ENDM

	.MACRO __PUTB1RONS
	MOV  R26,R@0
	MOV  R27,R@1
	ADIW R26,@2
	ST   X,R30
	.ENDM

	.MACRO __PUTW1RONS
	MOV  R26,R@0
	MOV  R27,R@1
	ADIW R26,@2
	ST   X+,R30
	ST   X,R31
	.ENDM

	.MACRO __PUTD1RONS
	MOV  R26,R@0
	MOV  R27,R@1
	ADIW R26,@2
	CALL __PUTDP1
	.ENDM


	.MACRO __GETB1SX
	MOVW R30,R28
	SUBI R30,LOW(-@0)
	SBCI R31,HIGH(-@0)
	LD   R30,Z
	.ENDM

	.MACRO __GETB1HSX
	MOVW R30,R28
	SUBI R30,LOW(-@0)
	SBCI R31,HIGH(-@0)
	LD   R31,Z
	.ENDM

	.MACRO __GETW1SX
	MOVW R30,R28
	SUBI R30,LOW(-@0)
	SBCI R31,HIGH(-@0)
	LD   R0,Z+
	LD   R31,Z
	MOV  R30,R0
	.ENDM

	.MACRO __GETD1SX
	MOVW R30,R28
	SUBI R30,LOW(-@0)
	SBCI R31,HIGH(-@0)
	LD   R0,Z+
	LD   R1,Z+
	LD   R22,Z+
	LD   R23,Z
	MOVW R30,R0
	.ENDM

	.MACRO __GETB2SX
	MOVW R26,R28
	SUBI R26,LOW(-@0)
	SBCI R27,HIGH(-@0)
	LD   R26,X
	.ENDM

	.MACRO __GETW2SX
	MOVW R26,R28
	SUBI R26,LOW(-@0)
	SBCI R27,HIGH(-@0)
	LD   R0,X+
	LD   R27,X
	MOV  R26,R0
	.ENDM

	.MACRO __GETD2SX
	MOVW R26,R28
	SUBI R26,LOW(-@0)
	SBCI R27,HIGH(-@0)
	LD   R0,X+
	LD   R1,X+
	LD   R24,X+
	LD   R25,X
	MOVW R26,R0
	.ENDM

	.MACRO __GETBRSX
	MOVW R30,R28
	SUBI R30,LOW(-@1)
	SBCI R31,HIGH(-@1)
	LD   R@0,Z
	.ENDM

	.MACRO __GETWRSX
	MOVW R30,R28
	SUBI R30,LOW(-@2)
	SBCI R31,HIGH(-@2)
	LD   R@0,Z+
	LD   R@1,Z
	.ENDM

	.MACRO __GETBRSX2
	MOVW R26,R28
	SUBI R26,LOW(-@1)
	SBCI R27,HIGH(-@1)
	LD   R@0,X
	.ENDM

	.MACRO __GETWRSX2
	MOVW R26,R28
	SUBI R26,LOW(-@2)
	SBCI R27,HIGH(-@2)
	LD   R@0,X+
	LD   R@1,X
	.ENDM

	.MACRO __LSLW8SX
	MOVW R30,R28
	SUBI R30,LOW(-@0)
	SBCI R31,HIGH(-@0)
	LD   R31,Z
	CLR  R30
	.ENDM

	.MACRO __PUTB1SX
	MOVW R26,R28
	SUBI R26,LOW(-@0)
	SBCI R27,HIGH(-@0)
	ST   X,R30
	.ENDM

	.MACRO __PUTW1SX
	MOVW R26,R28
	SUBI R26,LOW(-@0)
	SBCI R27,HIGH(-@0)
	ST   X+,R30
	ST   X,R31
	.ENDM

	.MACRO __PUTD1SX
	MOVW R26,R28
	SUBI R26,LOW(-@0)
	SBCI R27,HIGH(-@0)
	ST   X+,R30
	ST   X+,R31
	ST   X+,R22
	ST   X,R23
	.ENDM

	.MACRO __CLRW1SX
	MOVW R26,R28
	SUBI R26,LOW(-@0)
	SBCI R27,HIGH(-@0)
	ST   X+,R30
	ST   X,R30
	.ENDM

	.MACRO __CLRD1SX
	MOVW R26,R28
	SUBI R26,LOW(-@0)
	SBCI R27,HIGH(-@0)
	ST   X+,R30
	ST   X+,R30
	ST   X+,R30
	ST   X,R30
	.ENDM

	.MACRO __PUTB2SX
	MOVW R30,R28
	SUBI R30,LOW(-@0)
	SBCI R31,HIGH(-@0)
	ST   Z,R26
	.ENDM

	.MACRO __PUTW2SX
	MOVW R30,R28
	SUBI R30,LOW(-@0)
	SBCI R31,HIGH(-@0)
	ST   Z+,R26
	ST   Z,R27
	.ENDM

	.MACRO __PUTD2SX
	MOVW R30,R28
	SUBI R30,LOW(-@0)
	SBCI R31,HIGH(-@0)
	ST   Z+,R26
	ST   Z+,R27
	ST   Z+,R24
	ST   Z,R25
	.ENDM

	.MACRO __PUTBSRX
	MOVW R30,R28
	SUBI R30,LOW(-@1)
	SBCI R31,HIGH(-@1)
	ST   Z,R@0
	.ENDM

	.MACRO __PUTWSRX
	MOVW R30,R28
	SUBI R30,LOW(-@2)
	SBCI R31,HIGH(-@2)
	ST   Z+,R@0
	ST   Z,R@1
	.ENDM

	.MACRO __PUTB1SNX
	MOVW R26,R28
	SUBI R26,LOW(-@0)
	SBCI R27,HIGH(-@0)
	LD   R0,X+
	LD   R27,X
	MOV  R26,R0
	SUBI R26,LOW(-@1)
	SBCI R27,HIGH(-@1)
	ST   X,R30
	.ENDM

	.MACRO __PUTW1SNX
	MOVW R26,R28
	SUBI R26,LOW(-@0)
	SBCI R27,HIGH(-@0)
	LD   R0,X+
	LD   R27,X
	MOV  R26,R0
	SUBI R26,LOW(-@1)
	SBCI R27,HIGH(-@1)
	ST   X+,R30
	ST   X,R31
	.ENDM

	.MACRO __PUTD1SNX
	MOVW R26,R28
	SUBI R26,LOW(-@0)
	SBCI R27,HIGH(-@0)
	LD   R0,X+
	LD   R27,X
	MOV  R26,R0
	SUBI R26,LOW(-@1)
	SBCI R27,HIGH(-@1)
	ST   X+,R30
	ST   X+,R31
	ST   X+,R22
	ST   X,R23
	.ENDM

	.MACRO __MULBRR
	MULS R@0,R@1
	MOVW R30,R0
	.ENDM

	.MACRO __MULBRRU
	MUL  R@0,R@1
	MOVW R30,R0
	.ENDM

	.MACRO __MULBRR0
	MULS R@0,R@1
	.ENDM

	.MACRO __MULBRRU0
	MUL  R@0,R@1
	.ENDM

	.MACRO __MULBNWRU
	LDI  R26,@2
	MUL  R26,R@0
	MOVW R30,R0
	MUL  R26,R@1
	ADD  R31,R0
	.ENDM

;NAME DEFINITIONS FOR GLOBAL VARIABLES ALLOCATED TO REGISTERS
	.DEF _connected=R4
	.DEF _connected_msb=R5
	.DEF _temperatureAmount=R6
	.DEF _temperatureAmount_msb=R7
	.DEF _d=R8
	.DEF _d_msb=R9
	.DEF _headerAmount=R11
	.DEF _footerAmount=R10
	.DEF _getTempInstruction=R13
	.DEF _setPWMInstruction=R12

	.CSEG
	.ORG 0x00

;START OF CODE MARKER
__START_OF_CODE:

;INTERRUPT VECTORS
	JMP  __RESET
	JMP  0x00
	JMP  0x00
	JMP  0x00
	JMP  0x00
	JMP  0x00
	JMP  0x00
	JMP  0x00
	JMP  0x00
	JMP  0x00
	JMP  _timer0_comp_isr
	JMP  _timer0_ovf_isr
	JMP  0x00
	JMP  _usart_rx_isr
	JMP  0x00
	JMP  _usart_tx_isr
	JMP  _adc_isr
	JMP  0x00
	JMP  0x00
	JMP  0x00
	JMP  0x00

_tbl10_G100:
	.DB  0x10,0x27,0xE8,0x3,0x64,0x0,0xA,0x0
	.DB  0x1,0x0
_tbl16_G100:
	.DB  0x0,0x10,0x0,0x1,0x10,0x0,0x1,0x0

;REGISTER BIT VARIABLES INITIALIZATION
__REG_BIT_VARS:
	.DW  0x0000

;GLOBAL REGISTER VARIABLES INITIALIZATION
__REG_VARS:
	.DB  0x0,0x0,0x0,0x0
	.DB  0x0,0x0,0xFF,0xAA
	.DB  0x40,0x20

_0x3:
	.DB  0x31,0x30,0x31,0x30,0x31,0x30,0x31,0x30
_0x4:
	.DB  0x31,0x31,0x31,0x31,0x31,0x31,0x31,0x31
_0x0:
	.DB  0x25,0x64,0x0,0x63,0x6F,0x6E,0x6E,0x65
	.DB  0x63,0x74,0x65,0x64,0x0,0x52,0x65,0x63
	.DB  0x65,0x69,0x76,0x65,0x64,0x0,0x54,0x65
	.DB  0x6D,0x70,0x20,0x3A,0x20,0x25,0x64,0x0
	.DB  0x4D,0x6F,0x74,0x6F,0x72,0x53,0x70,0x65
	.DB  0x65,0x64,0x20,0x3A,0x20,0x25,0x64,0x0
_0x2040003:
	.DB  0x80,0xC0

__GLOBAL_INI_TBL:
	.DW  0x01
	.DW  0x02
	.DW  __REG_BIT_VARS*2

	.DW  0x0A
	.DW  0x04
	.DW  __REG_VARS*2

	.DW  0x0A
	.DW  _0x9
	.DW  _0x0*2+3

	.DW  0x09
	.DW  _0x1E
	.DW  _0x0*2+13

	.DW  0x02
	.DW  __base_y_G102
	.DW  _0x2040003*2

_0xFFFFFFFF:
	.DW  0

#define __GLOBAL_INI_TBL_PRESENT 1

__RESET:
	CLI
	CLR  R30
	OUT  EECR,R30

;INTERRUPT VECTORS ARE PLACED
;AT THE START OF FLASH
	LDI  R31,1
	OUT  GICR,R31
	OUT  GICR,R30
	OUT  MCUCR,R30

;CLEAR R2-R14
	LDI  R24,(14-2)+1
	LDI  R26,2
	CLR  R27
__CLEAR_REG:
	ST   X+,R30
	DEC  R24
	BRNE __CLEAR_REG

;CLEAR SRAM
	LDI  R24,LOW(__CLEAR_SRAM_SIZE)
	LDI  R25,HIGH(__CLEAR_SRAM_SIZE)
	LDI  R26,__SRAM_START
__CLEAR_SRAM:
	ST   X+,R30
	SBIW R24,1
	BRNE __CLEAR_SRAM

;GLOBAL VARIABLES INITIALIZATION
	LDI  R30,LOW(__GLOBAL_INI_TBL*2)
	LDI  R31,HIGH(__GLOBAL_INI_TBL*2)
__GLOBAL_INI_NEXT:
	LPM  R24,Z+
	LPM  R25,Z+
	SBIW R24,0
	BREQ __GLOBAL_INI_END
	LPM  R26,Z+
	LPM  R27,Z+
	LPM  R0,Z+
	LPM  R1,Z+
	MOVW R22,R30
	MOVW R30,R0
__GLOBAL_INI_LOOP:
	LPM  R0,Z+
	ST   X+,R0
	SBIW R24,1
	BRNE __GLOBAL_INI_LOOP
	MOVW R30,R22
	RJMP __GLOBAL_INI_NEXT
__GLOBAL_INI_END:

;HARDWARE STACK POINTER INITIALIZATION
	LDI  R30,LOW(__SRAM_END-__HEAP_SIZE)
	OUT  SPL,R30
	LDI  R30,HIGH(__SRAM_END-__HEAP_SIZE)
	OUT  SPH,R30

;DATA STACK POINTER INITIALIZATION
	LDI  R28,LOW(__SRAM_START+__DSTACK_SIZE)
	LDI  R29,HIGH(__SRAM_START+__DSTACK_SIZE)

	JMP  _main

	.ESEG
	.ORG 0

	.DSEG
	.ORG 0x260

	.CSEG
;/*******************************************************
;This program was created by the
;CodeWizardAVR V3.12 Advanced
;Automatic Program Generator
;ï¿½ Copyright 1998-2014 Pavel Haiduc, HP InfoTech s.r.l.
;http://www.hpinfotech.com
;
;Project :
;Version :
;Date    : 1/23/2020
;Author  :
;Company :
;Comments:
;
;
;Chip type               : ATmega32
;Program type            : Application
;AVR Core Clock frequency: 8.000000 MHz
;Memory model            : Small
;External RAM size       : 0
;Data Stack size         : 512
;*******************************************************/
;
;#include <mega32.h>
	#ifndef __SLEEP_DEFINED__
	#define __SLEEP_DEFINED__
	.EQU __se_bit=0x80
	.EQU __sm_mask=0x70
	.EQU __sm_powerdown=0x20
	.EQU __sm_powersave=0x30
	.EQU __sm_standby=0x60
	.EQU __sm_ext_standby=0x70
	.EQU __sm_adc_noise_red=0x10
	.SET power_ctrl_reg=mcucr
	#endif
;#include <delay.h>
;#include <delay.h>
;#include <stdio.h>
;#include <string.h>
;// Alphanumeric LCD functions
;#include <alcd.h>
;
;// Declare your global variables here
;int connected = 0 ;
;char printer[20] = "";
;int temperatureAmount = 0 ;
;
;int d ;
;char header[9] = "10101010" ; // 170

	.DSEG
;char headerAmount = 170 ;
;char footerAmount = 255 ;
;char getTempInstruction = 32 ;
;char setPWMInstruction = 64 ;
;char footer[9] = "11111111" ; //255
;int packetNo = 0 ;
;char inputData = 0 ;
;int motorPWM = 0 ;
;
;int tempMode = 0 ;
;int tempDiv = 0 ;
;
;#define DATA_REGISTER_EMPTY (1<<UDRE)
;#define RX_COMPLETE (1<<RXC)
;#define FRAMING_ERROR (1<<FE)
;#define PARITY_ERROR (1<<UPE)
;#define DATA_OVERRUN (1<<DOR)
;
;// USART Receiver buffer
;#define RX_BUFFER_SIZE 8
;char rx_buffer[RX_BUFFER_SIZE];
;
;#if RX_BUFFER_SIZE <= 256
;unsigned char rx_wr_index=0,rx_rd_index=0;
;#else
;unsigned int rx_wr_index=0,rx_rd_index=0;
;#endif
;
;#if RX_BUFFER_SIZE < 256
;unsigned char rx_counter=0;
;#else
;unsigned int rx_counter=0;
;#endif
;
;// This flag is set on USART Receiver buffer overflow
;bit rx_buffer_overflow;
;
;// USART Receiver interrupt service routine
;interrupt [USART_RXC] void usart_rx_isr(void)
; 0000 004E {

	.CSEG
_usart_rx_isr:
; .FSTART _usart_rx_isr
	ST   -Y,R0
	ST   -Y,R1
	ST   -Y,R15
	ST   -Y,R22
	ST   -Y,R23
	ST   -Y,R24
	ST   -Y,R25
	ST   -Y,R26
	ST   -Y,R27
	ST   -Y,R30
	ST   -Y,R31
	IN   R30,SREG
	ST   -Y,R30
; 0000 004F char status,data;
; 0000 0050 status=UCSRA;
	ST   -Y,R17
	ST   -Y,R16
;	status -> R17
;	data -> R16
	IN   R17,11
; 0000 0051 data=UDR;
	IN   R16,12
; 0000 0052 if ((status & (FRAMING_ERROR | PARITY_ERROR | DATA_OVERRUN))==0)
	MOV  R30,R17
	ANDI R30,LOW(0x1C)
	BRNE _0x5
; 0000 0053    {
; 0000 0054    rx_buffer[rx_wr_index++]=data;
	LDS  R30,_rx_wr_index
	SUBI R30,-LOW(1)
	STS  _rx_wr_index,R30
	SUBI R30,LOW(1)
	LDI  R31,0
	SUBI R30,LOW(-_rx_buffer)
	SBCI R31,HIGH(-_rx_buffer)
	ST   Z,R16
; 0000 0055 #if RX_BUFFER_SIZE == 256
; 0000 0056    // special case for receiver buffer size=256
; 0000 0057    if (++rx_counter == 0) rx_buffer_overflow=1;
; 0000 0058 #else
; 0000 0059    if (rx_wr_index == RX_BUFFER_SIZE) rx_wr_index=0;
	LDS  R26,_rx_wr_index
	CPI  R26,LOW(0x8)
	BRNE _0x6
	LDI  R30,LOW(0)
	STS  _rx_wr_index,R30
; 0000 005A    if (++rx_counter == RX_BUFFER_SIZE)
_0x6:
	LDS  R26,_rx_counter
	SUBI R26,-LOW(1)
	STS  _rx_counter,R26
	CPI  R26,LOW(0x8)
	BRNE _0x7
; 0000 005B       {
; 0000 005C       rx_counter=0;
	LDI  R30,LOW(0)
	STS  _rx_counter,R30
; 0000 005D       rx_buffer_overflow=1;
	SET
	BLD  R2,0
; 0000 005E       }
; 0000 005F #endif
; 0000 0060    }
_0x7:
; 0000 0061     d =(int) data ;
_0x5:
	MOV  R8,R16
	CLR  R9
; 0000 0062    sprintf(printer,"%d",d);
	CALL SUBOPT_0x0
	__POINTW1FN _0x0,0
	CALL SUBOPT_0x1
; 0000 0063    lcd_puts(printer);
; 0000 0064    delay_ms(1000);
	LDI  R26,LOW(1000)
	LDI  R27,HIGH(1000)
	CALL _delay_ms
; 0000 0065 
; 0000 0066    lcd_clear();
	CALL _lcd_clear
; 0000 0067    if ( (int)data == 170 ){
	MOV  R26,R16
	LDI  R27,0
	CPI  R26,LOW(0xAA)
	LDI  R30,HIGH(0xAA)
	CPC  R27,R30
	BRNE _0x8
; 0000 0068          connected = 1 ;
	LDI  R30,LOW(1)
	LDI  R31,HIGH(1)
	MOVW R4,R30
; 0000 0069          lcd_puts("connected");
	__POINTW2MN _0x9,0
	CALL _lcd_puts
; 0000 006A 
; 0000 006B    }
; 0000 006C }
_0x8:
	LD   R16,Y+
	LD   R17,Y+
	LD   R30,Y+
	OUT  SREG,R30
	LD   R31,Y+
	LD   R30,Y+
	LD   R27,Y+
	LD   R26,Y+
	LD   R25,Y+
	LD   R24,Y+
	LD   R23,Y+
	LD   R22,Y+
	LD   R15,Y+
	LD   R1,Y+
	LD   R0,Y+
	RETI
; .FEND

	.DSEG
_0x9:
	.BYTE 0xA
;
;#ifndef _DEBUG_TERMINAL_IO_
;// Get a character from the USART Receiver buffer
;#define _ALTERNATE_GETCHAR_
;#pragma used+
;char getchar(void)
; 0000 0073 {

	.CSEG
_getchar:
; .FSTART _getchar
; 0000 0074 char data;
; 0000 0075 while (rx_counter==0);
	ST   -Y,R17
;	data -> R17
_0xA:
	LDS  R30,_rx_counter
	CPI  R30,0
	BREQ _0xA
; 0000 0076 data=rx_buffer[rx_rd_index++];
	LDS  R30,_rx_rd_index
	SUBI R30,-LOW(1)
	STS  _rx_rd_index,R30
	SUBI R30,LOW(1)
	LDI  R31,0
	SUBI R30,LOW(-_rx_buffer)
	SBCI R31,HIGH(-_rx_buffer)
	LD   R17,Z
; 0000 0077 #if RX_BUFFER_SIZE != 256
; 0000 0078 if (rx_rd_index == RX_BUFFER_SIZE) rx_rd_index=0;
	LDS  R26,_rx_rd_index
	CPI  R26,LOW(0x8)
	BRNE _0xD
	LDI  R30,LOW(0)
	STS  _rx_rd_index,R30
; 0000 0079 #endif
; 0000 007A #asm("cli")
_0xD:
	cli
; 0000 007B --rx_counter;
	LDS  R30,_rx_counter
	SUBI R30,LOW(1)
	STS  _rx_counter,R30
; 0000 007C #asm("sei")
	sei
; 0000 007D return data;
	MOV  R30,R17
	LD   R17,Y+
	RET
; 0000 007E }
; .FEND
;#pragma used-
;#endif
;
;// USART Transmitter buffer
;#define TX_BUFFER_SIZE 8
;char tx_buffer[TX_BUFFER_SIZE];
;
;#if TX_BUFFER_SIZE <= 256
;unsigned char tx_wr_index=0,tx_rd_index=0;
;#else
;unsigned int tx_wr_index=0,tx_rd_index=0;
;#endif
;
;#if TX_BUFFER_SIZE < 256
;unsigned char tx_counter=0;
;#else
;unsigned int tx_counter=0;
;#endif
;
;// USART Transmitter interrupt service routine
;interrupt [USART_TXC] void usart_tx_isr(void)
; 0000 0094 {
_usart_tx_isr:
; .FSTART _usart_tx_isr
	ST   -Y,R26
	ST   -Y,R30
	ST   -Y,R31
	IN   R30,SREG
	ST   -Y,R30
; 0000 0095 if (tx_counter)
	LDS  R30,_tx_counter
	CPI  R30,0
	BREQ _0xE
; 0000 0096    {
; 0000 0097    --tx_counter;
	SUBI R30,LOW(1)
	STS  _tx_counter,R30
; 0000 0098    UDR=tx_buffer[tx_rd_index++];
	LDS  R30,_tx_rd_index
	SUBI R30,-LOW(1)
	STS  _tx_rd_index,R30
	SUBI R30,LOW(1)
	LDI  R31,0
	SUBI R30,LOW(-_tx_buffer)
	SBCI R31,HIGH(-_tx_buffer)
	LD   R30,Z
	OUT  0xC,R30
; 0000 0099 #if TX_BUFFER_SIZE != 256
; 0000 009A    if (tx_rd_index == TX_BUFFER_SIZE) tx_rd_index=0;
	LDS  R26,_tx_rd_index
	CPI  R26,LOW(0x8)
	BRNE _0xF
	LDI  R30,LOW(0)
	STS  _tx_rd_index,R30
; 0000 009B #endif
; 0000 009C    }
_0xF:
; 0000 009D }
_0xE:
	LD   R30,Y+
	OUT  SREG,R30
	LD   R31,Y+
	LD   R30,Y+
	LD   R26,Y+
	RETI
; .FEND
;
;#ifndef _DEBUG_TERMINAL_IO_
;// Write a character to the USART Transmitter buffer
;#define _ALTERNATE_PUTCHAR_
;#pragma used+
;void putchar(char c)
; 0000 00A4 {
_putchar:
; .FSTART _putchar
; 0000 00A5 while (tx_counter == TX_BUFFER_SIZE);
	ST   -Y,R26
;	c -> Y+0
_0x10:
	LDS  R26,_tx_counter
	CPI  R26,LOW(0x8)
	BREQ _0x10
; 0000 00A6 #asm("cli")
	cli
; 0000 00A7 if (tx_counter || ((UCSRA & DATA_REGISTER_EMPTY)==0))
	LDS  R30,_tx_counter
	CPI  R30,0
	BRNE _0x14
	SBIC 0xB,5
	RJMP _0x13
_0x14:
; 0000 00A8    {
; 0000 00A9    tx_buffer[tx_wr_index++]=c;
	LDS  R30,_tx_wr_index
	SUBI R30,-LOW(1)
	STS  _tx_wr_index,R30
	SUBI R30,LOW(1)
	LDI  R31,0
	SUBI R30,LOW(-_tx_buffer)
	SBCI R31,HIGH(-_tx_buffer)
	LD   R26,Y
	STD  Z+0,R26
; 0000 00AA #if TX_BUFFER_SIZE != 256
; 0000 00AB    if (tx_wr_index == TX_BUFFER_SIZE) tx_wr_index=0;
	LDS  R26,_tx_wr_index
	CPI  R26,LOW(0x8)
	BRNE _0x16
	LDI  R30,LOW(0)
	STS  _tx_wr_index,R30
; 0000 00AC #endif
; 0000 00AD    ++tx_counter;
_0x16:
	LDS  R30,_tx_counter
	SUBI R30,-LOW(1)
	STS  _tx_counter,R30
; 0000 00AE    }
; 0000 00AF else
	RJMP _0x17
_0x13:
; 0000 00B0    UDR=c;
	LD   R30,Y
	OUT  0xC,R30
; 0000 00B1 #asm("sei")
_0x17:
	sei
; 0000 00B2 }
	JMP  _0x2080001
; .FEND
;#pragma used-
;#endif
;
;// Standard Input/Output functions
;#include <stdio.h>
;
;// Timer 0 overflow interrupt service routine
;interrupt [TIM0_OVF] void timer0_ovf_isr(void)
; 0000 00BB {
_timer0_ovf_isr:
; .FSTART _timer0_ovf_isr
; 0000 00BC // Place your code here
; 0000 00BD 
; 0000 00BE }
	RETI
; .FEND
;
;// Timer 0 output compare interrupt service routine
;interrupt [TIM0_COMP] void timer0_comp_isr(void)
; 0000 00C2 {
_timer0_comp_isr:
; .FSTART _timer0_comp_isr
; 0000 00C3 // Place your code here
; 0000 00C4 
; 0000 00C5 }
	RETI
; .FEND
;
;#define FIRST_ADC_INPUT 0
;#define LAST_ADC_INPUT 2
;unsigned char adc_data[LAST_ADC_INPUT-FIRST_ADC_INPUT+1];
;// Voltage Reference: AREF pin
;#define ADC_VREF_TYPE ((0<<REFS1) | (0<<REFS0) | (1<<ADLAR))
;
;// ADC interrupt service routine
;// with auto input scanning
;interrupt [ADC_INT] void adc_isr(void)
; 0000 00D0 {
_adc_isr:
; .FSTART _adc_isr
	ST   -Y,R24
	ST   -Y,R26
	ST   -Y,R27
	ST   -Y,R30
	IN   R30,SREG
	ST   -Y,R30
; 0000 00D1 static unsigned char input_index=0;
; 0000 00D2 // Read the 8 most significant bits
; 0000 00D3 // of the AD conversion result
; 0000 00D4 adc_data[input_index]=ADCH;
	LDS  R26,_input_index_S0000006000
	LDI  R27,0
	SUBI R26,LOW(-_adc_data)
	SBCI R27,HIGH(-_adc_data)
	IN   R30,0x5
	ST   X,R30
; 0000 00D5 // Select next ADC input
; 0000 00D6 if (++input_index > (LAST_ADC_INPUT-FIRST_ADC_INPUT))
	LDS  R26,_input_index_S0000006000
	SUBI R26,-LOW(1)
	STS  _input_index_S0000006000,R26
	CPI  R26,LOW(0x3)
	BRLO _0x18
; 0000 00D7    input_index=0;
	LDI  R30,LOW(0)
	STS  _input_index_S0000006000,R30
; 0000 00D8 ADMUX=(FIRST_ADC_INPUT | ADC_VREF_TYPE)+input_index;
_0x18:
	LDS  R30,_input_index_S0000006000
	SUBI R30,-LOW(32)
	OUT  0x7,R30
; 0000 00D9 // Delay needed for the stabilization of the ADC input voltage
; 0000 00DA delay_us(10);
	__DELAY_USB 27
; 0000 00DB // Start the AD conversion
; 0000 00DC ADCSRA|=(1<<ADSC);
	SBI  0x6,6
; 0000 00DD }
	LD   R30,Y+
	OUT  SREG,R30
	LD   R30,Y+
	LD   R27,Y+
	LD   R26,Y+
	LD   R24,Y+
	RETI
; .FEND
;
;int getTemp(){
; 0000 00DF int getTemp(){
_getTemp:
; .FSTART _getTemp
; 0000 00E0   int a = adc_data[0] ;
; 0000 00E1   //int temp  = (a*1023)/1.5 ;
; 0000 00E2 
; 0000 00E3   int temp  = a/2.054;
; 0000 00E4   return temp ;
	CALL __SAVELOCR4
;	a -> R16,R17
;	temp -> R18,R19
	LDS  R30,_adc_data
	LDI  R31,0
	MOVW R16,R30
	CALL __CWD1
	CALL __CDF1
	MOVW R26,R30
	MOVW R24,R22
	__GETD1N 0x400374BC
	CALL __DIVF21
	CALL __CFD1U
	MOVW R18,R30
	CALL __LOADLOCR4
	ADIW R28,4
	RET
; 0000 00E5 }
; .FEND
;
;
;
;void main(void)
; 0000 00EA {
_main:
; .FSTART _main
; 0000 00EB // Declare your local variables here
; 0000 00EC 
; 0000 00ED // Input/Output Ports initialization
; 0000 00EE // Port A initialization
; 0000 00EF // Function: Bit7=In Bit6=In Bit5=In Bit4=In Bit3=In Bit2=In Bit1=In Bit0=In
; 0000 00F0 DDRA=(0<<DDA7) | (0<<DDA6) | (0<<DDA5) | (0<<DDA4) | (0<<DDA3) | (0<<DDA2) | (0<<DDA1) | (0<<DDA0);
	LDI  R30,LOW(0)
	OUT  0x1A,R30
; 0000 00F1 // State: Bit7=T Bit6=T Bit5=T Bit4=T Bit3=T Bit2=T Bit1=T Bit0=T
; 0000 00F2 PORTA=(0<<PORTA7) | (0<<PORTA6) | (0<<PORTA5) | (0<<PORTA4) | (0<<PORTA3) | (0<<PORTA2) | (0<<PORTA1) | (0<<PORTA0);
	OUT  0x1B,R30
; 0000 00F3 
; 0000 00F4 // Port B initialization
; 0000 00F5 // Function: Bit7=In Bit6=In Bit5=In Bit4=In Bit3=Out Bit2=In Bit1=In Bit0=In
; 0000 00F6 DDRB=(0<<DDB7) | (0<<DDB6) | (0<<DDB5) | (0<<DDB4) | (1<<DDB3) | (0<<DDB2) | (0<<DDB1) | (0<<DDB0);
	LDI  R30,LOW(8)
	OUT  0x17,R30
; 0000 00F7 // State: Bit7=T Bit6=T Bit5=T Bit4=T Bit3=0 Bit2=T Bit1=T Bit0=T
; 0000 00F8 PORTB=(0<<PORTB7) | (0<<PORTB6) | (0<<PORTB5) | (0<<PORTB4) | (0<<PORTB3) | (0<<PORTB2) | (0<<PORTB1) | (0<<PORTB0);
	LDI  R30,LOW(0)
	OUT  0x18,R30
; 0000 00F9 
; 0000 00FA // Port C initialization
; 0000 00FB // Function: Bit7=In Bit6=In Bit5=In Bit4=In Bit3=In Bit2=In Bit1=In Bit0=In
; 0000 00FC DDRC=(0<<DDC7) | (0<<DDC6) | (0<<DDC5) | (0<<DDC4) | (0<<DDC3) | (0<<DDC2) | (0<<DDC1) | (0<<DDC0);
	OUT  0x14,R30
; 0000 00FD // State: Bit7=T Bit6=T Bit5=T Bit4=T Bit3=T Bit2=T Bit1=T Bit0=T
; 0000 00FE PORTC=(0<<PORTC7) | (0<<PORTC6) | (0<<PORTC5) | (0<<PORTC4) | (0<<PORTC3) | (0<<PORTC2) | (0<<PORTC1) | (0<<PORTC0);
	OUT  0x15,R30
; 0000 00FF 
; 0000 0100 // Port D initialization
; 0000 0101 // Function: Bit7=In Bit6=In Bit5=In Bit4=In Bit3=In Bit2=In Bit1=In Bit0=In
; 0000 0102 DDRD=(0<<DDD7) | (0<<DDD6) | (0<<DDD5) | (0<<DDD4) | (0<<DDD3) | (0<<DDD2) | (0<<DDD1) | (0<<DDD0);
	OUT  0x11,R30
; 0000 0103 // State: Bit7=T Bit6=T Bit5=T Bit4=T Bit3=T Bit2=T Bit1=T Bit0=T
; 0000 0104 PORTD=(0<<PORTD7) | (0<<PORTD6) | (0<<PORTD5) | (0<<PORTD4) | (0<<PORTD3) | (0<<PORTD2) | (0<<PORTD1) | (0<<PORTD0);
	OUT  0x12,R30
; 0000 0105 
; 0000 0106 // Timer/Counter 0 initialization
; 0000 0107 // Clock source: System Clock
; 0000 0108 // Clock value: 125.000 kHz
; 0000 0109 // Mode: Phase correct PWM top=0xFF
; 0000 010A // OC0 output: Non-Inverted PWM
; 0000 010B // Timer Period: 4.08 ms
; 0000 010C // Output Pulse(s):
; 0000 010D // OC0 Period: 4.08 ms Width: 1.536 ms
; 0000 010E TCCR0=(1<<WGM00) | (1<<COM01) | (0<<COM00) | (0<<WGM01) | (0<<CS02) | (1<<CS01) | (1<<CS00);
	LDI  R30,LOW(99)
	OUT  0x33,R30
; 0000 010F TCNT0=0x00;
	LDI  R30,LOW(0)
	OUT  0x32,R30
; 0000 0110 OCR0=0x60;
	LDI  R30,LOW(96)
	OUT  0x3C,R30
; 0000 0111 
; 0000 0112 // Timer/Counter 1 initialization
; 0000 0113 // Clock source: System Clock
; 0000 0114 // Clock value: Timer1 Stopped
; 0000 0115 // Mode: Normal top=0xFFFF
; 0000 0116 // OC1A output: Disconnected
; 0000 0117 // OC1B output: Disconnected
; 0000 0118 // Noise Canceler: Off
; 0000 0119 // Input Capture on Falling Edge
; 0000 011A // Timer1 Overflow Interrupt: Off
; 0000 011B // Input Capture Interrupt: Off
; 0000 011C // Compare A Match Interrupt: Off
; 0000 011D // Compare B Match Interrupt: Off
; 0000 011E TCCR1A=(0<<COM1A1) | (0<<COM1A0) | (0<<COM1B1) | (0<<COM1B0) | (0<<WGM11) | (0<<WGM10);
	LDI  R30,LOW(0)
	OUT  0x2F,R30
; 0000 011F TCCR1B=(0<<ICNC1) | (0<<ICES1) | (0<<WGM13) | (0<<WGM12) | (0<<CS12) | (0<<CS11) | (0<<CS10);
	OUT  0x2E,R30
; 0000 0120 TCNT1H=0x00;
	OUT  0x2D,R30
; 0000 0121 TCNT1L=0x00;
	OUT  0x2C,R30
; 0000 0122 ICR1H=0x00;
	OUT  0x27,R30
; 0000 0123 ICR1L=0x00;
	OUT  0x26,R30
; 0000 0124 OCR1AH=0x00;
	OUT  0x2B,R30
; 0000 0125 OCR1AL=0x00;
	OUT  0x2A,R30
; 0000 0126 OCR1BH=0x00;
	OUT  0x29,R30
; 0000 0127 OCR1BL=0x00;
	OUT  0x28,R30
; 0000 0128 
; 0000 0129 // Timer/Counter 2 initialization
; 0000 012A // Clock source: System Clock
; 0000 012B // Clock value: Timer2 Stopped
; 0000 012C // Mode: Normal top=0xFF
; 0000 012D // OC2 output: Disconnected
; 0000 012E ASSR=0<<AS2;
	OUT  0x22,R30
; 0000 012F TCCR2=(0<<PWM2) | (0<<COM21) | (0<<COM20) | (0<<CTC2) | (0<<CS22) | (0<<CS21) | (0<<CS20);
	OUT  0x25,R30
; 0000 0130 TCNT2=0x00;
	OUT  0x24,R30
; 0000 0131 OCR2=0x00;
	OUT  0x23,R30
; 0000 0132 
; 0000 0133 // Timer(s)/Counter(s) Interrupt(s) initialization
; 0000 0134 TIMSK=(0<<OCIE2) | (0<<TOIE2) | (0<<TICIE1) | (0<<OCIE1A) | (0<<OCIE1B) | (0<<TOIE1) | (1<<OCIE0) | (1<<TOIE0);
	LDI  R30,LOW(3)
	OUT  0x39,R30
; 0000 0135 
; 0000 0136 // External Interrupt(s) initialization
; 0000 0137 // INT0: Off
; 0000 0138 // INT1: Off
; 0000 0139 // INT2: Off
; 0000 013A MCUCR=(0<<ISC11) | (0<<ISC10) | (0<<ISC01) | (0<<ISC00);
	LDI  R30,LOW(0)
	OUT  0x35,R30
; 0000 013B MCUCSR=(0<<ISC2);
	OUT  0x34,R30
; 0000 013C 
; 0000 013D // USART initialization
; 0000 013E // Communication Parameters: 8 Data, 2 Stop, No Parity
; 0000 013F // USART Receiver: On
; 0000 0140 // USART Transmitter: On
; 0000 0141 // USART Mode: Asynchronous
; 0000 0142 // USART Baud Rate: 9600
; 0000 0143 UCSRA=(0<<RXC) | (0<<TXC) | (0<<UDRE) | (0<<FE) | (0<<DOR) | (0<<UPE) | (0<<U2X) | (0<<MPCM);
	OUT  0xB,R30
; 0000 0144 UCSRB=(1<<RXCIE) | (1<<TXCIE) | (0<<UDRIE) | (1<<RXEN) | (1<<TXEN) | (0<<UCSZ2) | (0<<RXB8) | (0<<TXB8);
	LDI  R30,LOW(216)
	OUT  0xA,R30
; 0000 0145 UCSRC=(1<<URSEL) | (0<<UMSEL) | (0<<UPM1) | (0<<UPM0) | (1<<USBS) | (1<<UCSZ1) | (1<<UCSZ0) | (0<<UCPOL);
	LDI  R30,LOW(142)
	OUT  0x20,R30
; 0000 0146 UBRRH=0x00;
	LDI  R30,LOW(0)
	OUT  0x20,R30
; 0000 0147 UBRRL=0x33;
	LDI  R30,LOW(51)
	OUT  0x9,R30
; 0000 0148 
; 0000 0149 // Analog Comparator initialization
; 0000 014A // Analog Comparator: Off
; 0000 014B // The Analog Comparator's positive input is
; 0000 014C // connected to the AIN0 pin
; 0000 014D // The Analog Comparator's negative input is
; 0000 014E // connected to the AIN1 pin
; 0000 014F ACSR=(1<<ACD) | (0<<ACBG) | (0<<ACO) | (0<<ACI) | (0<<ACIE) | (0<<ACIC) | (0<<ACIS1) | (0<<ACIS0);
	LDI  R30,LOW(128)
	OUT  0x8,R30
; 0000 0150 
; 0000 0151 // ADC initialization
; 0000 0152 // ADC Clock frequency: 1000.000 kHz
; 0000 0153 // ADC Voltage Reference: AREF pin
; 0000 0154 // ADC Auto Trigger Source: ADC Stopped
; 0000 0155 // Only the 8 most significant bits of
; 0000 0156 // the AD conversion result are used
; 0000 0157 ADMUX=FIRST_ADC_INPUT | ADC_VREF_TYPE;
	LDI  R30,LOW(32)
	OUT  0x7,R30
; 0000 0158 ADCSRA=(1<<ADEN) | (1<<ADSC) | (0<<ADATE) | (0<<ADIF) | (1<<ADIE) | (0<<ADPS2) | (1<<ADPS1) | (1<<ADPS0);
	LDI  R30,LOW(203)
	OUT  0x6,R30
; 0000 0159 SFIOR=(0<<ADTS2) | (0<<ADTS1) | (0<<ADTS0);
	LDI  R30,LOW(0)
	OUT  0x30,R30
; 0000 015A 
; 0000 015B // SPI initialization
; 0000 015C // SPI disabled
; 0000 015D SPCR=(0<<SPIE) | (0<<SPE) | (0<<DORD) | (0<<MSTR) | (0<<CPOL) | (0<<CPHA) | (0<<SPR1) | (0<<SPR0);
	OUT  0xD,R30
; 0000 015E 
; 0000 015F // TWI initialization
; 0000 0160 // TWI disabled
; 0000 0161 TWCR=(0<<TWEA) | (0<<TWSTA) | (0<<TWSTO) | (0<<TWEN) | (0<<TWIE);
	OUT  0x36,R30
; 0000 0162 
; 0000 0163 // Alphanumeric LCD initialization
; 0000 0164 // Connections are specified in the
; 0000 0165 // Project|Configure|C Compiler|Libraries|Alphanumeric LCD menu:
; 0000 0166 // RS - PORTC Bit 0
; 0000 0167 // RD - PORTC Bit 1
; 0000 0168 // EN - PORTC Bit 2
; 0000 0169 // D4 - PORTC Bit 4
; 0000 016A // D5 - PORTC Bit 5
; 0000 016B // D6 - PORTC Bit 6
; 0000 016C // D7 - PORTC Bit 7
; 0000 016D // Characters/line: 16
; 0000 016E lcd_init(16);
	LDI  R26,LOW(16)
	CALL _lcd_init
; 0000 016F 
; 0000 0170 // Global enable interrupts
; 0000 0171 #asm("sei")
	sei
; 0000 0172 OCR0 = 0 ;
	LDI  R30,LOW(0)
	OUT  0x3C,R30
; 0000 0173 while (1)
_0x19:
; 0000 0174       {
; 0000 0175         inputData = getchar();
	RCALL _getchar
	STS  _inputData,R30
; 0000 0176         //temperatureAmount = getTemp();
; 0000 0177         //sprintf(printer,"%d",temperatureAmount);
; 0000 0178         //lcd_puts(printer);
; 0000 0179         connected = 1 ;
	LDI  R30,LOW(1)
	LDI  R31,HIGH(1)
	MOVW R4,R30
; 0000 017A          d = (int) inputData  ;
	LDS  R8,_inputData
	CLR  R9
; 0000 017B 
; 0000 017C         if( d == 170 ){
	LDI  R30,LOW(170)
	LDI  R31,HIGH(170)
	CP   R30,R8
	CPC  R31,R9
	BREQ PC+2
	RJMP _0x1C
; 0000 017D           inputData = getchar();
	RCALL _getchar
	STS  _inputData,R30
; 0000 017E            //inputData = 33 ;
; 0000 017F            d = (int) inputData  ;
	LDS  R8,_inputData
	CLR  R9
; 0000 0180           if( d ==  33){
	LDI  R30,LOW(33)
	LDI  R31,HIGH(33)
	CP   R30,R8
	CPC  R31,R9
	BREQ PC+2
	RJMP _0x1D
; 0000 0181             //send temperature data
; 0000 0182             temperatureAmount = getTemp();
	RCALL _getTemp
	MOVW R6,R30
; 0000 0183             lcd_puts("Received");
	__POINTW2MN _0x1E,0
	CALL _lcd_puts
; 0000 0184             delay_ms(1000);
	LDI  R26,LOW(1000)
	LDI  R27,HIGH(1000)
	CALL _delay_ms
; 0000 0185 
; 0000 0186 
; 0000 0187             sprintf(printer,"Temp : %d",temperatureAmount);
	CALL SUBOPT_0x0
	__POINTW1FN _0x0,22
	ST   -Y,R31
	ST   -Y,R30
	MOVW R30,R6
	CALL __CWD1
	CALL __PUTPARD1
	LDI  R24,4
	RCALL _sprintf
	ADIW R28,8
; 0000 0188             lcd_puts(printer);
	LDI  R26,LOW(_printer)
	LDI  R27,HIGH(_printer)
	CALL _lcd_puts
; 0000 0189 
; 0000 018A 
; 0000 018B             //Process :
; 0000 018C              tempMode = temperatureAmount % 255 ;
	MOVW R26,R6
	LDI  R30,LOW(255)
	LDI  R31,HIGH(255)
	CALL __MODW21
	STS  _tempMode,R30
	STS  _tempMode+1,R31
; 0000 018D              tempDiv = temperatureAmount / 255 ;
	MOVW R26,R6
	LDI  R30,LOW(255)
	LDI  R31,HIGH(255)
	CALL __DIVW21
	STS  _tempDiv,R30
	STS  _tempDiv+1,R31
; 0000 018E 
; 0000 018F              if ( tempMode == 0 && tempDiv != 0 ){
	CALL SUBOPT_0x2
	BRNE _0x20
	CALL SUBOPT_0x3
	BRNE _0x21
_0x20:
	RJMP _0x1F
_0x21:
; 0000 0190                packetNo = 1 ;
	CALL SUBOPT_0x4
; 0000 0191                putchar(headerAmount);
; 0000 0192                delay_ms(100);
; 0000 0193                putchar((char)33);
; 0000 0194                delay_ms(100);
; 0000 0195                putchar((char)packetNo);
	CALL SUBOPT_0x5
; 0000 0196                delay_ms(100);
; 0000 0197                putchar(tempDiv);
	LDS  R26,_tempDiv
	RJMP _0x2D
; 0000 0198                delay_ms(100);
; 0000 0199                putchar(footerAmount);
; 0000 019A              }
; 0000 019B              else if ( tempMode != 0 && tempDiv == 0 ){
_0x1F:
	CALL SUBOPT_0x2
	BREQ _0x24
	CALL SUBOPT_0x3
	BREQ _0x25
_0x24:
	RJMP _0x23
_0x25:
; 0000 019C                packetNo = 1 ;
	CALL SUBOPT_0x4
; 0000 019D                putchar(headerAmount);
; 0000 019E                delay_ms(100);
; 0000 019F                putchar((char)33);
; 0000 01A0                delay_ms(100);
; 0000 01A1                putchar((char) packetNo);
	RJMP _0x2E
; 0000 01A2                delay_ms(100);
; 0000 01A3                putchar(tempMode);
; 0000 01A4                delay_ms(100);
; 0000 01A5                putchar(footerAmount);
; 0000 01A6              }
; 0000 01A7              else if ( tempMode != 0 && tempDiv != 0  ){
_0x23:
	CALL SUBOPT_0x2
	BREQ _0x28
	CALL SUBOPT_0x3
	BRNE _0x29
_0x28:
	RJMP _0x27
_0x29:
; 0000 01A8                packetNo = 2 ;
	LDI  R30,LOW(2)
	LDI  R31,HIGH(2)
	STS  _packetNo,R30
	STS  _packetNo+1,R31
; 0000 01A9                putchar(headerAmount);
	MOV  R26,R11
	CALL SUBOPT_0x5
; 0000 01AA                delay_ms(100);
; 0000 01AB                putchar((char)33);
	LDI  R26,LOW(33)
	CALL SUBOPT_0x5
; 0000 01AC                delay_ms(100);
; 0000 01AD                putchar((char)packetNo);
	LDS  R26,_packetNo
	CALL SUBOPT_0x5
; 0000 01AE                delay_ms(100);
; 0000 01AF                putchar(tempDiv);
	LDS  R26,_tempDiv
_0x2E:
	RCALL _putchar
; 0000 01B0                delay_ms(100);
	CALL SUBOPT_0x6
; 0000 01B1                putchar(tempMode);
	LDS  R26,_tempMode
_0x2D:
	RCALL _putchar
; 0000 01B2                delay_ms(100);
	CALL SUBOPT_0x6
; 0000 01B3                putchar(footerAmount);
	MOV  R26,R10
	RCALL _putchar
; 0000 01B4              }
; 0000 01B5           }
_0x27:
; 0000 01B6 
; 0000 01B7           else if ( d == 64 ){
	RJMP _0x2A
_0x1D:
	LDI  R30,LOW(64)
	LDI  R31,HIGH(64)
	CP   R30,R8
	CPC  R31,R9
	BRNE _0x2B
; 0000 01B8             // set motor pwm
; 0000 01B9 
; 0000 01BA             getchar();
	RCALL _getchar
; 0000 01BB             delay_ms(500);
	LDI  R26,LOW(500)
	LDI  R27,HIGH(500)
	CALL _delay_ms
; 0000 01BC 
; 0000 01BD             motorPWM = getchar();
	RCALL _getchar
	LDI  R31,0
	STS  _motorPWM,R30
	STS  _motorPWM+1,R31
; 0000 01BE             d = (int) motorPWM ;
	__GETWRMN 8,9,0,_motorPWM
; 0000 01BF             sprintf(printer,"MotorSpeed : %d",d);
	CALL SUBOPT_0x0
	__POINTW1FN _0x0,32
	CALL SUBOPT_0x1
; 0000 01C0             lcd_puts(printer);
; 0000 01C1             OCR0 = (255*d)/100 ;
	MOVW R30,R8
	LDI  R26,LOW(255)
	LDI  R27,HIGH(255)
	CALL __MULW12
	MOVW R26,R30
	LDI  R30,LOW(100)
	LDI  R31,HIGH(100)
	CALL __DIVW21
	OUT  0x3C,R30
; 0000 01C2             getchar();
	RCALL _getchar
; 0000 01C3           }
; 0000 01C4         }\\ end of if (1)
; 0000 01C5         delay_ms(100);
_0x2B:
_0x2A:
_0x1C:
	CALL SUBOPT_0x6
; 0000 01C6        lcd_clear();
	CALL _lcd_clear
; 0000 01C7     }\\end of while
; 0000 01C8 }
	RJMP _0x19
_0x2C:
	RJMP _0x2C
; .FEND

	.DSEG
_0x1E:
	.BYTE 0x9
	#ifndef __SLEEP_DEFINED__
	#define __SLEEP_DEFINED__
	.EQU __se_bit=0x80
	.EQU __sm_mask=0x70
	.EQU __sm_powerdown=0x20
	.EQU __sm_powersave=0x30
	.EQU __sm_standby=0x60
	.EQU __sm_ext_standby=0x70
	.EQU __sm_adc_noise_red=0x10
	.SET power_ctrl_reg=mcucr
	#endif

	.CSEG
_put_buff_G100:
; .FSTART _put_buff_G100
	ST   -Y,R27
	ST   -Y,R26
	ST   -Y,R17
	ST   -Y,R16
	LDD  R26,Y+2
	LDD  R27,Y+2+1
	ADIW R26,2
	CALL __GETW1P
	SBIW R30,0
	BREQ _0x2000010
	LDD  R26,Y+2
	LDD  R27,Y+2+1
	ADIW R26,4
	CALL __GETW1P
	MOVW R16,R30
	SBIW R30,0
	BREQ _0x2000012
	__CPWRN 16,17,2
	BRLO _0x2000013
	MOVW R30,R16
	SBIW R30,1
	MOVW R16,R30
	__PUTW1SNS 2,4
_0x2000012:
	LDD  R26,Y+2
	LDD  R27,Y+2+1
	ADIW R26,2
	LD   R30,X+
	LD   R31,X+
	ADIW R30,1
	ST   -X,R31
	ST   -X,R30
	SBIW R30,1
	LDD  R26,Y+4
	STD  Z+0,R26
_0x2000013:
	LDD  R26,Y+2
	LDD  R27,Y+2+1
	CALL __GETW1P
	TST  R31
	BRMI _0x2000014
	LD   R30,X+
	LD   R31,X+
	ADIW R30,1
	ST   -X,R31
	ST   -X,R30
_0x2000014:
	RJMP _0x2000015
_0x2000010:
	LDD  R26,Y+2
	LDD  R27,Y+2+1
	LDI  R30,LOW(65535)
	LDI  R31,HIGH(65535)
	ST   X+,R30
	ST   X,R31
_0x2000015:
	LDD  R17,Y+1
	LDD  R16,Y+0
	ADIW R28,5
	RET
; .FEND
__print_G100:
; .FSTART __print_G100
	ST   -Y,R27
	ST   -Y,R26
	SBIW R28,6
	CALL __SAVELOCR6
	LDI  R17,0
	LDD  R26,Y+12
	LDD  R27,Y+12+1
	LDI  R30,LOW(0)
	LDI  R31,HIGH(0)
	ST   X+,R30
	ST   X,R31
_0x2000016:
	LDD  R30,Y+18
	LDD  R31,Y+18+1
	ADIW R30,1
	STD  Y+18,R30
	STD  Y+18+1,R31
	SBIW R30,1
	LPM  R30,Z
	MOV  R18,R30
	CPI  R30,0
	BRNE PC+2
	RJMP _0x2000018
	MOV  R30,R17
	CPI  R30,0
	BRNE _0x200001C
	CPI  R18,37
	BRNE _0x200001D
	LDI  R17,LOW(1)
	RJMP _0x200001E
_0x200001D:
	CALL SUBOPT_0x7
_0x200001E:
	RJMP _0x200001B
_0x200001C:
	CPI  R30,LOW(0x1)
	BRNE _0x200001F
	CPI  R18,37
	BRNE _0x2000020
	CALL SUBOPT_0x7
	RJMP _0x20000CC
_0x2000020:
	LDI  R17,LOW(2)
	LDI  R20,LOW(0)
	LDI  R16,LOW(0)
	CPI  R18,45
	BRNE _0x2000021
	LDI  R16,LOW(1)
	RJMP _0x200001B
_0x2000021:
	CPI  R18,43
	BRNE _0x2000022
	LDI  R20,LOW(43)
	RJMP _0x200001B
_0x2000022:
	CPI  R18,32
	BRNE _0x2000023
	LDI  R20,LOW(32)
	RJMP _0x200001B
_0x2000023:
	RJMP _0x2000024
_0x200001F:
	CPI  R30,LOW(0x2)
	BRNE _0x2000025
_0x2000024:
	LDI  R21,LOW(0)
	LDI  R17,LOW(3)
	CPI  R18,48
	BRNE _0x2000026
	ORI  R16,LOW(128)
	RJMP _0x200001B
_0x2000026:
	RJMP _0x2000027
_0x2000025:
	CPI  R30,LOW(0x3)
	BREQ PC+2
	RJMP _0x200001B
_0x2000027:
	CPI  R18,48
	BRLO _0x200002A
	CPI  R18,58
	BRLO _0x200002B
_0x200002A:
	RJMP _0x2000029
_0x200002B:
	LDI  R26,LOW(10)
	MUL  R21,R26
	MOV  R21,R0
	MOV  R30,R18
	SUBI R30,LOW(48)
	ADD  R21,R30
	RJMP _0x200001B
_0x2000029:
	MOV  R30,R18
	CPI  R30,LOW(0x63)
	BRNE _0x200002F
	CALL SUBOPT_0x8
	LDD  R30,Y+16
	LDD  R31,Y+16+1
	LDD  R26,Z+4
	ST   -Y,R26
	CALL SUBOPT_0x9
	RJMP _0x2000030
_0x200002F:
	CPI  R30,LOW(0x73)
	BRNE _0x2000032
	CALL SUBOPT_0x8
	CALL SUBOPT_0xA
	CALL _strlen
	MOV  R17,R30
	RJMP _0x2000033
_0x2000032:
	CPI  R30,LOW(0x70)
	BRNE _0x2000035
	CALL SUBOPT_0x8
	CALL SUBOPT_0xA
	CALL _strlenf
	MOV  R17,R30
	ORI  R16,LOW(8)
_0x2000033:
	ORI  R16,LOW(2)
	ANDI R16,LOW(127)
	LDI  R19,LOW(0)
	RJMP _0x2000036
_0x2000035:
	CPI  R30,LOW(0x64)
	BREQ _0x2000039
	CPI  R30,LOW(0x69)
	BRNE _0x200003A
_0x2000039:
	ORI  R16,LOW(4)
	RJMP _0x200003B
_0x200003A:
	CPI  R30,LOW(0x75)
	BRNE _0x200003C
_0x200003B:
	LDI  R30,LOW(_tbl10_G100*2)
	LDI  R31,HIGH(_tbl10_G100*2)
	STD  Y+6,R30
	STD  Y+6+1,R31
	LDI  R17,LOW(5)
	RJMP _0x200003D
_0x200003C:
	CPI  R30,LOW(0x58)
	BRNE _0x200003F
	ORI  R16,LOW(8)
	RJMP _0x2000040
_0x200003F:
	CPI  R30,LOW(0x78)
	BREQ PC+2
	RJMP _0x2000071
_0x2000040:
	LDI  R30,LOW(_tbl16_G100*2)
	LDI  R31,HIGH(_tbl16_G100*2)
	STD  Y+6,R30
	STD  Y+6+1,R31
	LDI  R17,LOW(4)
_0x200003D:
	SBRS R16,2
	RJMP _0x2000042
	CALL SUBOPT_0x8
	CALL SUBOPT_0xB
	LDD  R26,Y+11
	TST  R26
	BRPL _0x2000043
	LDD  R30,Y+10
	LDD  R31,Y+10+1
	CALL __ANEGW1
	STD  Y+10,R30
	STD  Y+10+1,R31
	LDI  R20,LOW(45)
_0x2000043:
	CPI  R20,0
	BREQ _0x2000044
	SUBI R17,-LOW(1)
	RJMP _0x2000045
_0x2000044:
	ANDI R16,LOW(251)
_0x2000045:
	RJMP _0x2000046
_0x2000042:
	CALL SUBOPT_0x8
	CALL SUBOPT_0xB
_0x2000046:
_0x2000036:
	SBRC R16,0
	RJMP _0x2000047
_0x2000048:
	CP   R17,R21
	BRSH _0x200004A
	SBRS R16,7
	RJMP _0x200004B
	SBRS R16,2
	RJMP _0x200004C
	ANDI R16,LOW(251)
	MOV  R18,R20
	SUBI R17,LOW(1)
	RJMP _0x200004D
_0x200004C:
	LDI  R18,LOW(48)
_0x200004D:
	RJMP _0x200004E
_0x200004B:
	LDI  R18,LOW(32)
_0x200004E:
	CALL SUBOPT_0x7
	SUBI R21,LOW(1)
	RJMP _0x2000048
_0x200004A:
_0x2000047:
	MOV  R19,R17
	SBRS R16,1
	RJMP _0x200004F
_0x2000050:
	CPI  R19,0
	BREQ _0x2000052
	SBRS R16,3
	RJMP _0x2000053
	LDD  R30,Y+6
	LDD  R31,Y+6+1
	LPM  R18,Z+
	STD  Y+6,R30
	STD  Y+6+1,R31
	RJMP _0x2000054
_0x2000053:
	LDD  R26,Y+6
	LDD  R27,Y+6+1
	LD   R18,X+
	STD  Y+6,R26
	STD  Y+6+1,R27
_0x2000054:
	CALL SUBOPT_0x7
	CPI  R21,0
	BREQ _0x2000055
	SUBI R21,LOW(1)
_0x2000055:
	SUBI R19,LOW(1)
	RJMP _0x2000050
_0x2000052:
	RJMP _0x2000056
_0x200004F:
_0x2000058:
	LDI  R18,LOW(48)
	LDD  R30,Y+6
	LDD  R31,Y+6+1
	CALL __GETW1PF
	STD  Y+8,R30
	STD  Y+8+1,R31
	LDD  R30,Y+6
	LDD  R31,Y+6+1
	ADIW R30,2
	STD  Y+6,R30
	STD  Y+6+1,R31
_0x200005A:
	LDD  R30,Y+8
	LDD  R31,Y+8+1
	LDD  R26,Y+10
	LDD  R27,Y+10+1
	CP   R26,R30
	CPC  R27,R31
	BRLO _0x200005C
	SUBI R18,-LOW(1)
	LDD  R26,Y+8
	LDD  R27,Y+8+1
	LDD  R30,Y+10
	LDD  R31,Y+10+1
	SUB  R30,R26
	SBC  R31,R27
	STD  Y+10,R30
	STD  Y+10+1,R31
	RJMP _0x200005A
_0x200005C:
	CPI  R18,58
	BRLO _0x200005D
	SBRS R16,3
	RJMP _0x200005E
	SUBI R18,-LOW(7)
	RJMP _0x200005F
_0x200005E:
	SUBI R18,-LOW(39)
_0x200005F:
_0x200005D:
	SBRC R16,4
	RJMP _0x2000061
	CPI  R18,49
	BRSH _0x2000063
	LDD  R26,Y+8
	LDD  R27,Y+8+1
	SBIW R26,1
	BRNE _0x2000062
_0x2000063:
	RJMP _0x20000CD
_0x2000062:
	CP   R21,R19
	BRLO _0x2000067
	SBRS R16,0
	RJMP _0x2000068
_0x2000067:
	RJMP _0x2000066
_0x2000068:
	LDI  R18,LOW(32)
	SBRS R16,7
	RJMP _0x2000069
	LDI  R18,LOW(48)
_0x20000CD:
	ORI  R16,LOW(16)
	SBRS R16,2
	RJMP _0x200006A
	ANDI R16,LOW(251)
	ST   -Y,R20
	CALL SUBOPT_0x9
	CPI  R21,0
	BREQ _0x200006B
	SUBI R21,LOW(1)
_0x200006B:
_0x200006A:
_0x2000069:
_0x2000061:
	CALL SUBOPT_0x7
	CPI  R21,0
	BREQ _0x200006C
	SUBI R21,LOW(1)
_0x200006C:
_0x2000066:
	SUBI R19,LOW(1)
	LDD  R26,Y+8
	LDD  R27,Y+8+1
	SBIW R26,2
	BRLO _0x2000059
	RJMP _0x2000058
_0x2000059:
_0x2000056:
	SBRS R16,0
	RJMP _0x200006D
_0x200006E:
	CPI  R21,0
	BREQ _0x2000070
	SUBI R21,LOW(1)
	LDI  R30,LOW(32)
	ST   -Y,R30
	CALL SUBOPT_0x9
	RJMP _0x200006E
_0x2000070:
_0x200006D:
_0x2000071:
_0x2000030:
_0x20000CC:
	LDI  R17,LOW(0)
_0x200001B:
	RJMP _0x2000016
_0x2000018:
	LDD  R26,Y+12
	LDD  R27,Y+12+1
	CALL __GETW1P
	CALL __LOADLOCR6
	ADIW R28,20
	RET
; .FEND
_sprintf:
; .FSTART _sprintf
	PUSH R15
	MOV  R15,R24
	SBIW R28,6
	CALL __SAVELOCR4
	CALL SUBOPT_0xC
	SBIW R30,0
	BRNE _0x2000072
	LDI  R30,LOW(65535)
	LDI  R31,HIGH(65535)
	RJMP _0x2080002
_0x2000072:
	MOVW R26,R28
	ADIW R26,6
	CALL __ADDW2R15
	MOVW R16,R26
	CALL SUBOPT_0xC
	STD  Y+6,R30
	STD  Y+6+1,R31
	LDI  R30,LOW(0)
	STD  Y+8,R30
	STD  Y+8+1,R30
	MOVW R26,R28
	ADIW R26,10
	CALL __ADDW2R15
	CALL __GETW1P
	ST   -Y,R31
	ST   -Y,R30
	ST   -Y,R17
	ST   -Y,R16
	LDI  R30,LOW(_put_buff_G100)
	LDI  R31,HIGH(_put_buff_G100)
	ST   -Y,R31
	ST   -Y,R30
	MOVW R26,R28
	ADIW R26,10
	RCALL __print_G100
	MOVW R18,R30
	LDD  R26,Y+6
	LDD  R27,Y+6+1
	LDI  R30,LOW(0)
	ST   X,R30
	MOVW R30,R18
_0x2080002:
	CALL __LOADLOCR4
	ADIW R28,10
	POP  R15
	RET
; .FEND

	.CSEG
_strlen:
; .FSTART _strlen
	ST   -Y,R27
	ST   -Y,R26
    ld   r26,y+
    ld   r27,y+
    clr  r30
    clr  r31
strlen0:
    ld   r22,x+
    tst  r22
    breq strlen1
    adiw r30,1
    rjmp strlen0
strlen1:
    ret
; .FEND
_strlenf:
; .FSTART _strlenf
	ST   -Y,R27
	ST   -Y,R26
    clr  r26
    clr  r27
    ld   r30,y+
    ld   r31,y+
strlenf0:
	lpm  r0,z+
    tst  r0
    breq strlenf1
    adiw r26,1
    rjmp strlenf0
strlenf1:
    movw r30,r26
    ret
; .FEND
	#ifndef __SLEEP_DEFINED__
	#define __SLEEP_DEFINED__
	.EQU __se_bit=0x80
	.EQU __sm_mask=0x70
	.EQU __sm_powerdown=0x20
	.EQU __sm_powersave=0x30
	.EQU __sm_standby=0x60
	.EQU __sm_ext_standby=0x70
	.EQU __sm_adc_noise_red=0x10
	.SET power_ctrl_reg=mcucr
	#endif

	.DSEG

	.CSEG
__lcd_write_nibble_G102:
; .FSTART __lcd_write_nibble_G102
	ST   -Y,R26
	IN   R30,0x15
	ANDI R30,LOW(0xF)
	MOV  R26,R30
	LD   R30,Y
	ANDI R30,LOW(0xF0)
	OR   R30,R26
	OUT  0x15,R30
	__DELAY_USB 13
	SBI  0x15,2
	__DELAY_USB 13
	CBI  0x15,2
	__DELAY_USB 13
	RJMP _0x2080001
; .FEND
__lcd_write_data:
; .FSTART __lcd_write_data
	ST   -Y,R26
	LD   R26,Y
	RCALL __lcd_write_nibble_G102
    ld    r30,y
    swap  r30
    st    y,r30
	LD   R26,Y
	RCALL __lcd_write_nibble_G102
	__DELAY_USB 133
	RJMP _0x2080001
; .FEND
_lcd_gotoxy:
; .FSTART _lcd_gotoxy
	ST   -Y,R26
	LD   R30,Y
	LDI  R31,0
	SUBI R30,LOW(-__base_y_G102)
	SBCI R31,HIGH(-__base_y_G102)
	LD   R30,Z
	LDD  R26,Y+1
	ADD  R26,R30
	RCALL __lcd_write_data
	LDD  R30,Y+1
	STS  __lcd_x,R30
	LD   R30,Y
	STS  __lcd_y,R30
	ADIW R28,2
	RET
; .FEND
_lcd_clear:
; .FSTART _lcd_clear
	LDI  R26,LOW(2)
	CALL SUBOPT_0xD
	LDI  R26,LOW(12)
	RCALL __lcd_write_data
	LDI  R26,LOW(1)
	CALL SUBOPT_0xD
	LDI  R30,LOW(0)
	STS  __lcd_y,R30
	STS  __lcd_x,R30
	RET
; .FEND
_lcd_putchar:
; .FSTART _lcd_putchar
	ST   -Y,R26
	LD   R26,Y
	CPI  R26,LOW(0xA)
	BREQ _0x2040005
	LDS  R30,__lcd_maxx
	LDS  R26,__lcd_x
	CP   R26,R30
	BRLO _0x2040004
_0x2040005:
	LDI  R30,LOW(0)
	ST   -Y,R30
	LDS  R26,__lcd_y
	SUBI R26,-LOW(1)
	STS  __lcd_y,R26
	RCALL _lcd_gotoxy
	LD   R26,Y
	CPI  R26,LOW(0xA)
	BRNE _0x2040007
	RJMP _0x2080001
_0x2040007:
_0x2040004:
	LDS  R30,__lcd_x
	SUBI R30,-LOW(1)
	STS  __lcd_x,R30
	SBI  0x15,0
	LD   R26,Y
	RCALL __lcd_write_data
	CBI  0x15,0
	RJMP _0x2080001
; .FEND
_lcd_puts:
; .FSTART _lcd_puts
	ST   -Y,R27
	ST   -Y,R26
	ST   -Y,R17
_0x2040008:
	LDD  R26,Y+1
	LDD  R27,Y+1+1
	LD   R30,X+
	STD  Y+1,R26
	STD  Y+1+1,R27
	MOV  R17,R30
	CPI  R30,0
	BREQ _0x204000A
	MOV  R26,R17
	RCALL _lcd_putchar
	RJMP _0x2040008
_0x204000A:
	LDD  R17,Y+0
	ADIW R28,3
	RET
; .FEND
_lcd_init:
; .FSTART _lcd_init
	ST   -Y,R26
	IN   R30,0x14
	ORI  R30,LOW(0xF0)
	OUT  0x14,R30
	SBI  0x14,2
	SBI  0x14,0
	SBI  0x14,1
	CBI  0x15,2
	CBI  0x15,0
	CBI  0x15,1
	LD   R30,Y
	STS  __lcd_maxx,R30
	SUBI R30,-LOW(128)
	__PUTB1MN __base_y_G102,2
	LD   R30,Y
	SUBI R30,-LOW(192)
	__PUTB1MN __base_y_G102,3
	LDI  R26,LOW(20)
	LDI  R27,0
	CALL _delay_ms
	CALL SUBOPT_0xE
	CALL SUBOPT_0xE
	CALL SUBOPT_0xE
	LDI  R26,LOW(32)
	RCALL __lcd_write_nibble_G102
	__DELAY_USW 200
	LDI  R26,LOW(40)
	RCALL __lcd_write_data
	LDI  R26,LOW(4)
	RCALL __lcd_write_data
	LDI  R26,LOW(133)
	RCALL __lcd_write_data
	LDI  R26,LOW(6)
	RCALL __lcd_write_data
	RCALL _lcd_clear
_0x2080001:
	ADIW R28,1
	RET
; .FEND

	.CSEG

	.DSEG
_printer:
	.BYTE 0x14
_packetNo:
	.BYTE 0x2
_inputData:
	.BYTE 0x1
_motorPWM:
	.BYTE 0x2
_tempMode:
	.BYTE 0x2
_tempDiv:
	.BYTE 0x2
_rx_buffer:
	.BYTE 0x8
_rx_wr_index:
	.BYTE 0x1
_rx_rd_index:
	.BYTE 0x1
_rx_counter:
	.BYTE 0x1
_tx_buffer:
	.BYTE 0x8
_tx_wr_index:
	.BYTE 0x1
_tx_rd_index:
	.BYTE 0x1
_tx_counter:
	.BYTE 0x1
_adc_data:
	.BYTE 0x3
_input_index_S0000006000:
	.BYTE 0x1
__base_y_G102:
	.BYTE 0x4
__lcd_x:
	.BYTE 0x1
__lcd_y:
	.BYTE 0x1
__lcd_maxx:
	.BYTE 0x1

	.CSEG
;OPTIMIZER ADDED SUBROUTINE, CALLED 3 TIMES, CODE SIZE REDUCTION:1 WORDS
SUBOPT_0x0:
	LDI  R30,LOW(_printer)
	LDI  R31,HIGH(_printer)
	ST   -Y,R31
	ST   -Y,R30
	RET

;OPTIMIZER ADDED SUBROUTINE, CALLED 2 TIMES, CODE SIZE REDUCTION:10 WORDS
SUBOPT_0x1:
	ST   -Y,R31
	ST   -Y,R30
	MOVW R30,R8
	CALL __CWD1
	CALL __PUTPARD1
	LDI  R24,4
	CALL _sprintf
	ADIW R28,8
	LDI  R26,LOW(_printer)
	LDI  R27,HIGH(_printer)
	JMP  _lcd_puts

;OPTIMIZER ADDED SUBROUTINE, CALLED 3 TIMES, CODE SIZE REDUCTION:3 WORDS
SUBOPT_0x2:
	LDS  R26,_tempMode
	LDS  R27,_tempMode+1
	SBIW R26,0
	RET

;OPTIMIZER ADDED SUBROUTINE, CALLED 3 TIMES, CODE SIZE REDUCTION:3 WORDS
SUBOPT_0x3:
	LDS  R26,_tempDiv
	LDS  R27,_tempDiv+1
	SBIW R26,0
	RET

;OPTIMIZER ADDED SUBROUTINE, CALLED 2 TIMES, CODE SIZE REDUCTION:17 WORDS
SUBOPT_0x4:
	LDI  R30,LOW(1)
	LDI  R31,HIGH(1)
	STS  _packetNo,R30
	STS  _packetNo+1,R31
	MOV  R26,R11
	CALL _putchar
	LDI  R26,LOW(100)
	LDI  R27,0
	CALL _delay_ms
	LDI  R26,LOW(33)
	CALL _putchar
	LDI  R26,LOW(100)
	LDI  R27,0
	CALL _delay_ms
	LDS  R26,_packetNo
	RET

;OPTIMIZER ADDED SUBROUTINE, CALLED 4 TIMES, CODE SIZE REDUCTION:9 WORDS
SUBOPT_0x5:
	CALL _putchar
	LDI  R26,LOW(100)
	LDI  R27,0
	JMP  _delay_ms

;OPTIMIZER ADDED SUBROUTINE, CALLED 3 TIMES, CODE SIZE REDUCTION:1 WORDS
SUBOPT_0x6:
	LDI  R26,LOW(100)
	LDI  R27,0
	JMP  _delay_ms

;OPTIMIZER ADDED SUBROUTINE, CALLED 5 TIMES, CODE SIZE REDUCTION:13 WORDS
SUBOPT_0x7:
	ST   -Y,R18
	LDD  R26,Y+13
	LDD  R27,Y+13+1
	LDD  R30,Y+15
	LDD  R31,Y+15+1
	ICALL
	RET

;OPTIMIZER ADDED SUBROUTINE, CALLED 5 TIMES, CODE SIZE REDUCTION:9 WORDS
SUBOPT_0x8:
	LDD  R30,Y+16
	LDD  R31,Y+16+1
	SBIW R30,4
	STD  Y+16,R30
	STD  Y+16+1,R31
	RET

;OPTIMIZER ADDED SUBROUTINE, CALLED 3 TIMES, CODE SIZE REDUCTION:3 WORDS
SUBOPT_0x9:
	LDD  R26,Y+13
	LDD  R27,Y+13+1
	LDD  R30,Y+15
	LDD  R31,Y+15+1
	ICALL
	RET

;OPTIMIZER ADDED SUBROUTINE, CALLED 2 TIMES, CODE SIZE REDUCTION:4 WORDS
SUBOPT_0xA:
	LDD  R26,Y+16
	LDD  R27,Y+16+1
	ADIW R26,4
	CALL __GETW1P
	STD  Y+6,R30
	STD  Y+6+1,R31
	LDD  R26,Y+6
	LDD  R27,Y+6+1
	RET

;OPTIMIZER ADDED SUBROUTINE, CALLED 2 TIMES, CODE SIZE REDUCTION:2 WORDS
SUBOPT_0xB:
	LDD  R26,Y+16
	LDD  R27,Y+16+1
	ADIW R26,4
	CALL __GETW1P
	STD  Y+10,R30
	STD  Y+10+1,R31
	RET

;OPTIMIZER ADDED SUBROUTINE, CALLED 2 TIMES, CODE SIZE REDUCTION:1 WORDS
SUBOPT_0xC:
	MOVW R26,R28
	ADIW R26,12
	CALL __ADDW2R15
	CALL __GETW1P
	RET

;OPTIMIZER ADDED SUBROUTINE, CALLED 2 TIMES, CODE SIZE REDUCTION:1 WORDS
SUBOPT_0xD:
	CALL __lcd_write_data
	LDI  R26,LOW(3)
	LDI  R27,0
	JMP  _delay_ms

;OPTIMIZER ADDED SUBROUTINE, CALLED 3 TIMES, CODE SIZE REDUCTION:7 WORDS
SUBOPT_0xE:
	LDI  R26,LOW(48)
	CALL __lcd_write_nibble_G102
	__DELAY_USW 200
	RET


	.CSEG
_delay_ms:
	adiw r26,0
	breq __delay_ms1
__delay_ms0:
	__DELAY_USW 0x7D0
	wdr
	sbiw r26,1
	brne __delay_ms0
__delay_ms1:
	ret

__ROUND_REPACK:
	TST  R21
	BRPL __REPACK
	CPI  R21,0x80
	BRNE __ROUND_REPACK0
	SBRS R30,0
	RJMP __REPACK
__ROUND_REPACK0:
	ADIW R30,1
	ADC  R22,R25
	ADC  R23,R25
	BRVS __REPACK1

__REPACK:
	LDI  R21,0x80
	EOR  R21,R23
	BRNE __REPACK0
	PUSH R21
	RJMP __ZERORES
__REPACK0:
	CPI  R21,0xFF
	BREQ __REPACK1
	LSL  R22
	LSL  R0
	ROR  R21
	ROR  R22
	MOV  R23,R21
	RET
__REPACK1:
	PUSH R21
	TST  R0
	BRMI __REPACK2
	RJMP __MAXRES
__REPACK2:
	RJMP __MINRES

__UNPACK:
	LDI  R21,0x80
	MOV  R1,R25
	AND  R1,R21
	LSL  R24
	ROL  R25
	EOR  R25,R21
	LSL  R21
	ROR  R24

__UNPACK1:
	LDI  R21,0x80
	MOV  R0,R23
	AND  R0,R21
	LSL  R22
	ROL  R23
	EOR  R23,R21
	LSL  R21
	ROR  R22
	RET

__CFD1U:
	SET
	RJMP __CFD1U0
__CFD1:
	CLT
__CFD1U0:
	PUSH R21
	RCALL __UNPACK1
	CPI  R23,0x80
	BRLO __CFD10
	CPI  R23,0xFF
	BRCC __CFD10
	RJMP __ZERORES
__CFD10:
	LDI  R21,22
	SUB  R21,R23
	BRPL __CFD11
	NEG  R21
	CPI  R21,8
	BRTC __CFD19
	CPI  R21,9
__CFD19:
	BRLO __CFD17
	SER  R30
	SER  R31
	SER  R22
	LDI  R23,0x7F
	BLD  R23,7
	RJMP __CFD15
__CFD17:
	CLR  R23
	TST  R21
	BREQ __CFD15
__CFD18:
	LSL  R30
	ROL  R31
	ROL  R22
	ROL  R23
	DEC  R21
	BRNE __CFD18
	RJMP __CFD15
__CFD11:
	CLR  R23
__CFD12:
	CPI  R21,8
	BRLO __CFD13
	MOV  R30,R31
	MOV  R31,R22
	MOV  R22,R23
	SUBI R21,8
	RJMP __CFD12
__CFD13:
	TST  R21
	BREQ __CFD15
__CFD14:
	LSR  R23
	ROR  R22
	ROR  R31
	ROR  R30
	DEC  R21
	BRNE __CFD14
__CFD15:
	TST  R0
	BRPL __CFD16
	RCALL __ANEGD1
__CFD16:
	POP  R21
	RET

__CDF1U:
	SET
	RJMP __CDF1U0
__CDF1:
	CLT
__CDF1U0:
	SBIW R30,0
	SBCI R22,0
	SBCI R23,0
	BREQ __CDF10
	CLR  R0
	BRTS __CDF11
	TST  R23
	BRPL __CDF11
	COM  R0
	RCALL __ANEGD1
__CDF11:
	MOV  R1,R23
	LDI  R23,30
	TST  R1
__CDF12:
	BRMI __CDF13
	DEC  R23
	LSL  R30
	ROL  R31
	ROL  R22
	ROL  R1
	RJMP __CDF12
__CDF13:
	MOV  R30,R31
	MOV  R31,R22
	MOV  R22,R1
	PUSH R21
	RCALL __REPACK
	POP  R21
__CDF10:
	RET

__ZERORES:
	CLR  R30
	CLR  R31
	CLR  R22
	CLR  R23
	POP  R21
	RET

__MINRES:
	SER  R30
	SER  R31
	LDI  R22,0x7F
	SER  R23
	POP  R21
	RET

__MAXRES:
	SER  R30
	SER  R31
	LDI  R22,0x7F
	LDI  R23,0x7F
	POP  R21
	RET

__DIVF21:
	PUSH R21
	RCALL __UNPACK
	CPI  R23,0x80
	BRNE __DIVF210
	TST  R1
__DIVF211:
	BRPL __DIVF219
	RJMP __MINRES
__DIVF219:
	RJMP __MAXRES
__DIVF210:
	CPI  R25,0x80
	BRNE __DIVF218
__DIVF217:
	RJMP __ZERORES
__DIVF218:
	EOR  R0,R1
	SEC
	SBC  R25,R23
	BRVC __DIVF216
	BRLT __DIVF217
	TST  R0
	RJMP __DIVF211
__DIVF216:
	MOV  R23,R25
	PUSH R17
	PUSH R18
	PUSH R19
	PUSH R20
	CLR  R1
	CLR  R17
	CLR  R18
	CLR  R19
	CLR  R20
	CLR  R21
	LDI  R25,32
__DIVF212:
	CP   R26,R30
	CPC  R27,R31
	CPC  R24,R22
	CPC  R20,R17
	BRLO __DIVF213
	SUB  R26,R30
	SBC  R27,R31
	SBC  R24,R22
	SBC  R20,R17
	SEC
	RJMP __DIVF214
__DIVF213:
	CLC
__DIVF214:
	ROL  R21
	ROL  R18
	ROL  R19
	ROL  R1
	ROL  R26
	ROL  R27
	ROL  R24
	ROL  R20
	DEC  R25
	BRNE __DIVF212
	MOVW R30,R18
	MOV  R22,R1
	POP  R20
	POP  R19
	POP  R18
	POP  R17
	TST  R22
	BRMI __DIVF215
	LSL  R21
	ROL  R30
	ROL  R31
	ROL  R22
	DEC  R23
	BRVS __DIVF217
__DIVF215:
	RCALL __ROUND_REPACK
	POP  R21
	RET

__ADDW2R15:
	CLR  R0
	ADD  R26,R15
	ADC  R27,R0
	RET

__ANEGW1:
	NEG  R31
	NEG  R30
	SBCI R31,0
	RET

__ANEGD1:
	COM  R31
	COM  R22
	COM  R23
	NEG  R30
	SBCI R31,-1
	SBCI R22,-1
	SBCI R23,-1
	RET

__CWD1:
	MOV  R22,R31
	ADD  R22,R22
	SBC  R22,R22
	MOV  R23,R22
	RET

__MULW12U:
	MUL  R31,R26
	MOV  R31,R0
	MUL  R30,R27
	ADD  R31,R0
	MUL  R30,R26
	MOV  R30,R0
	ADD  R31,R1
	RET

__MULW12:
	RCALL __CHKSIGNW
	RCALL __MULW12U
	BRTC __MULW121
	RCALL __ANEGW1
__MULW121:
	RET

__DIVW21U:
	CLR  R0
	CLR  R1
	LDI  R25,16
__DIVW21U1:
	LSL  R26
	ROL  R27
	ROL  R0
	ROL  R1
	SUB  R0,R30
	SBC  R1,R31
	BRCC __DIVW21U2
	ADD  R0,R30
	ADC  R1,R31
	RJMP __DIVW21U3
__DIVW21U2:
	SBR  R26,1
__DIVW21U3:
	DEC  R25
	BRNE __DIVW21U1
	MOVW R30,R26
	MOVW R26,R0
	RET

__DIVW21:
	RCALL __CHKSIGNW
	RCALL __DIVW21U
	BRTC __DIVW211
	RCALL __ANEGW1
__DIVW211:
	RET

__MODW21:
	CLT
	SBRS R27,7
	RJMP __MODW211
	COM  R26
	COM  R27
	ADIW R26,1
	SET
__MODW211:
	SBRC R31,7
	RCALL __ANEGW1
	RCALL __DIVW21U
	MOVW R30,R26
	BRTC __MODW212
	RCALL __ANEGW1
__MODW212:
	RET

__CHKSIGNW:
	CLT
	SBRS R31,7
	RJMP __CHKSW1
	RCALL __ANEGW1
	SET
__CHKSW1:
	SBRS R27,7
	RJMP __CHKSW2
	COM  R26
	COM  R27
	ADIW R26,1
	BLD  R0,0
	INC  R0
	BST  R0,0
__CHKSW2:
	RET

__GETW1P:
	LD   R30,X+
	LD   R31,X
	SBIW R26,1
	RET

__GETW1PF:
	LPM  R0,Z+
	LPM  R31,Z
	MOV  R30,R0
	RET

__PUTPARD1:
	ST   -Y,R23
	ST   -Y,R22
	ST   -Y,R31
	ST   -Y,R30
	RET

__SAVELOCR6:
	ST   -Y,R21
__SAVELOCR5:
	ST   -Y,R20
__SAVELOCR4:
	ST   -Y,R19
__SAVELOCR3:
	ST   -Y,R18
__SAVELOCR2:
	ST   -Y,R17
	ST   -Y,R16
	RET

__LOADLOCR6:
	LDD  R21,Y+5
__LOADLOCR5:
	LDD  R20,Y+4
__LOADLOCR4:
	LDD  R19,Y+3
__LOADLOCR3:
	LDD  R18,Y+2
__LOADLOCR2:
	LDD  R17,Y+1
	LD   R16,Y
	RET

;END OF CODE MARKER
__END_OF_CODE:
